

Microchip MPLAB XC8 Assembler V2.10 build 88905656 
                                                                                               Tue Feb 11 14:21:11 2020

Microchip MPLAB XC8 C Compiler v2.10 (Free license) build 20190730164152 Og9 
     1                           	processor	12F1840
     2                           	opt	pw 120
     3                           	opt	flic
     4                           	psect	eeprom_data,global,class=EEDATA,space=3,delta=2
     5                           	psect	idataBANK1,global,class=CODE,delta=2
     6                           	psect	stringtext1,global,class=STRCODE,delta=2
     7                           	psect	cinit,global,class=CODE,merge=1,delta=2
     8                           	psect	bssCOMMON,global,class=COMMON,space=1,delta=1
     9                           	psect	bssBANK1,global,class=BANK1,space=1,delta=1
    10                           	psect	dataBANK1,global,class=BANK1,space=1,delta=1
    11                           	psect	clrtext,global,class=CODE,delta=2
    12                           	psect	cstackBANK1,global,class=BANK1,space=1,delta=1
    13                           	psect	cstackCOMMON,global,class=COMMON,space=1,delta=1
    14                           	psect	cstackBANK0,global,class=BANK0,space=1,delta=1
    15                           	psect	maintext,global,class=CODE,merge=1,split=1,delta=2
    16                           	psect	text1,local,class=CODE,merge=1,delta=2,group=1
    17                           	psect	text2,local,class=CODE,merge=1,delta=2
    18                           	psect	text3,local,class=CODE,merge=1,delta=2
    19                           	psect	text4,local,class=CODE,merge=1,delta=2
    20                           	psect	text5,local,class=CODE,merge=1,delta=2,group=1
    21                           	psect	text6,local,class=CODE,merge=1,delta=2,group=1
    22                           	psect	text7,local,class=CODE,merge=1,delta=2,group=1
    23                           	psect	text8,local,class=CODE,merge=1,delta=2,group=1
    24                           	psect	text9,local,class=CODE,merge=1,delta=2,group=1
    25                           	psect	text10,local,class=CODE,merge=1,delta=2
    26                           	psect	intentry,global,class=CODE,delta=2
    27                           	dabs	1,0x7E,2
    28  0000                     
    29                           ; Version 2.10
    30                           ; Generated 31/07/2019 GMT
    31                           ; 
    32                           ; Copyright © 2019, Microchip Technology Inc. and its subsidiaries ("Microchip")
    33                           ; All rights reserved.
    34                           ; 
    35                           ; This software is developed by Microchip Technology Inc. and its subsidiaries ("Microch
      +                          ip").
    36                           ; 
    37                           ; Redistribution and use in source and binary forms, with or without modification, are
    38                           ; permitted provided that the following conditions are met:
    39                           ; 
    40                           ;     1. Redistributions of source code must retain the above copyright notice, this lis
      +                          t of
    41                           ;        conditions and the following disclaimer.
    42                           ; 
    43                           ;     2. Redistributions in binary form must reproduce the above copyright notice, this 
      +                          list
    44                           ;        of conditions and the following disclaimer in the documentation and/or other
    45                           ;        materials provided with the distribution.
    46                           ; 
    47                           ;     3. Microchip's name may not be used to endorse or promote products derived from th
      +                          is
    48                           ;        software without specific prior written permission.
    49                           ; 
    50                           ; THIS SOFTWARE IS PROVIDED BY MICROCHIP "AS IS" AND ANY EXPRESS OR IMPLIED WARRANTIES,
    51                           ; INCLUDING, BUT NOT LIMITED TO, THE IMPLIED WARRANTIES OF MERCHANTABILITY AND FITNESS F
      +                          OR
    52                           ; PURPOSE ARE DISCLAIMED.  IN NO EVENT SHALL MICROCHIP BE LIABLE FOR ANY DIRECT, INDIREC
      +                          T,
    53                           ; INCIDENTAL, SPECIAL, EXEMPLARY, OR CONSEQUENTIAL DAMAGES (INCLUDING BUT NOT LIMITED TO
    54                           ; PROCUREMENT OF SUBSTITUTE GOODS OR SERVICES; LOSS OF USE, DATA OR PROFITS; OR BUSINESS
    55                           ; INTERRUPTION) HOWSOEVER CAUSED AND ON ANY THEORY OF LIABILITY, WHETHER IN CONTRACT, ST
      +                          RICT
    56                           ; LIABILITY, OR TORT (INCLUDING NEGLIGENCE OR OTHERWISE) ARISING IN ANY WAY OUT OF THE U
      +                          SE OF
    57                           ; THIS SOFTWARE, EVEN IF ADVISED OF THE POSSIBILITY OF SUCH DAMAGE.
    58                           ; 
    59                           ; 
    60                           ; Code-generator required, PIC12F1840 Definitions
    61                           ; 
    62                           ; SFR Addresses
    63  0000                     	;# 
    64  0001                     	;# 
    65  0002                     	;# 
    66  0003                     	;# 
    67  0004                     	;# 
    68  0005                     	;# 
    69  0006                     	;# 
    70  0007                     	;# 
    71  0008                     	;# 
    72  0009                     	;# 
    73  000A                     	;# 
    74  000B                     	;# 
    75  000C                     	;# 
    76  0011                     	;# 
    77  0012                     	;# 
    78  0015                     	;# 
    79  0016                     	;# 
    80  0016                     	;# 
    81  0017                     	;# 
    82  0018                     	;# 
    83  0019                     	;# 
    84  001A                     	;# 
    85  001B                     	;# 
    86  001C                     	;# 
    87  001E                     	;# 
    88  001F                     	;# 
    89  008C                     	;# 
    90  0091                     	;# 
    91  0092                     	;# 
    92  0095                     	;# 
    93  0096                     	;# 
    94  0097                     	;# 
    95  0098                     	;# 
    96  0099                     	;# 
    97  009A                     	;# 
    98  009B                     	;# 
    99  009B                     	;# 
   100  009C                     	;# 
   101  009D                     	;# 
   102  009E                     	;# 
   103  010C                     	;# 
   104  0111                     	;# 
   105  0112                     	;# 
   106  0115                     	;# 
   107  0116                     	;# 
   108  0117                     	;# 
   109  0118                     	;# 
   110  0119                     	;# 
   111  011A                     	;# 
   112  011B                     	;# 
   113  011D                     	;# 
   114  011D                     	;# 
   115  018C                     	;# 
   116  0191                     	;# 
   117  0191                     	;# 
   118  0192                     	;# 
   119  0193                     	;# 
   120  0193                     	;# 
   121  0193                     	;# 
   122  0194                     	;# 
   123  0195                     	;# 
   124  0196                     	;# 
   125  0197                     	;# 
   126  0199                     	;# 
   127  019A                     	;# 
   128  019B                     	;# 
   129  019B                     	;# 
   130  019B                     	;# 
   131  019B                     	;# 
   132  019C                     	;# 
   133  019C                     	;# 
   134  019D                     	;# 
   135  019E                     	;# 
   136  019F                     	;# 
   137  020C                     	;# 
   138  0211                     	;# 
   139  0211                     	;# 
   140  0212                     	;# 
   141  0212                     	;# 
   142  0213                     	;# 
   143  0213                     	;# 
   144  0214                     	;# 
   145  0214                     	;# 
   146  0215                     	;# 
   147  0215                     	;# 
   148  0215                     	;# 
   149  0216                     	;# 
   150  0216                     	;# 
   151  0217                     	;# 
   152  0217                     	;# 
   153  0291                     	;# 
   154  0291                     	;# 
   155  0292                     	;# 
   156  0293                     	;# 
   157  0294                     	;# 
   158  0295                     	;# 
   159  0295                     	;# 
   160  0296                     	;# 
   161  0391                     	;# 
   162  0392                     	;# 
   163  0393                     	;# 
   164  039A                     	;# 
   165  039C                     	;# 
   166  039D                     	;# 
   167  039E                     	;# 
   168  039F                     	;# 
   169  0FE4                     	;# 
   170  0FE5                     	;# 
   171  0FE6                     	;# 
   172  0FE7                     	;# 
   173  0FE8                     	;# 
   174  0FE9                     	;# 
   175  0FEA                     	;# 
   176  0FEB                     	;# 
   177  0FED                     	;# 
   178  0FEE                     	;# 
   179  0FEF                     	;# 
   180                           
   181                           	psect	eeprom_data
   182  0000  0000 0000 0000 0000 0000 0000 0000 0000 	db	0,0,0,0,0,0,0,0	;# 
   183  0008  0000 0000 00FF 00FF 00FF 00FF 00FF 00FF 	db	0,0,255,255,255,255,255,255	;# 
   184  0000                     	;# 
   185  0001                     	;# 
   186  0002                     	;# 
   187  0003                     	;# 
   188  0004                     	;# 
   189  0005                     	;# 
   190  0006                     	;# 
   191  0007                     	;# 
   192  0008                     	;# 
   193  0009                     	;# 
   194  000A                     	;# 
   195  000B                     	;# 
   196  000C                     	;# 
   197  0011                     	;# 
   198  0012                     	;# 
   199  0015                     	;# 
   200  0016                     	;# 
   201  0016                     	;# 
   202  0017                     	;# 
   203  0018                     	;# 
   204  0019                     	;# 
   205  001A                     	;# 
   206  001B                     	;# 
   207  001C                     	;# 
   208  001E                     	;# 
   209  001F                     	;# 
   210  008C                     	;# 
   211  0091                     	;# 
   212  0092                     	;# 
   213  0095                     	;# 
   214  0096                     	;# 
   215  0097                     	;# 
   216  0098                     	;# 
   217  0099                     	;# 
   218  009A                     	;# 
   219  009B                     	;# 
   220  009B                     	;# 
   221  009C                     	;# 
   222  009D                     	;# 
   223  009E                     	;# 
   224  010C                     	;# 
   225  0111                     	;# 
   226  0112                     	;# 
   227  0115                     	;# 
   228  0116                     	;# 
   229  0117                     	;# 
   230  0118                     	;# 
   231  0119                     	;# 
   232  011A                     	;# 
   233  011B                     	;# 
   234  011D                     	;# 
   235  011D                     	;# 
   236  018C                     	;# 
   237  0191                     	;# 
   238  0191                     	;# 
   239  0192                     	;# 
   240  0193                     	;# 
   241  0193                     	;# 
   242  0193                     	;# 
   243  0194                     	;# 
   244  0195                     	;# 
   245  0196                     	;# 
   246  0197                     	;# 
   247  0199                     	;# 
   248  019A                     	;# 
   249  019B                     	;# 
   250  019B                     	;# 
   251  019B                     	;# 
   252  019B                     	;# 
   253  019C                     	;# 
   254  019C                     	;# 
   255  019D                     	;# 
   256  019E                     	;# 
   257  019F                     	;# 
   258  020C                     	;# 
   259  0211                     	;# 
   260  0211                     	;# 
   261  0212                     	;# 
   262  0212                     	;# 
   263  0213                     	;# 
   264  0213                     	;# 
   265  0214                     	;# 
   266  0214                     	;# 
   267  0215                     	;# 
   268  0215                     	;# 
   269  0215                     	;# 
   270  0216                     	;# 
   271  0216                     	;# 
   272  0217                     	;# 
   273  0217                     	;# 
   274  0291                     	;# 
   275  0291                     	;# 
   276  0292                     	;# 
   277  0293                     	;# 
   278  0294                     	;# 
   279  0295                     	;# 
   280  0295                     	;# 
   281  0296                     	;# 
   282  0391                     	;# 
   283  0392                     	;# 
   284  0393                     	;# 
   285  039A                     	;# 
   286  039C                     	;# 
   287  039D                     	;# 
   288  039E                     	;# 
   289  039F                     	;# 
   290  0FE4                     	;# 
   291  0FE5                     	;# 
   292  0FE6                     	;# 
   293  0FE7                     	;# 
   294  0FE8                     	;# 
   295  0FE9                     	;# 
   296  0FEA                     	;# 
   297  0FEB                     	;# 
   298  0FED                     	;# 
   299  0FEE                     	;# 
   300  0FEF                     	;# 
   301  0000                     	;# 
   302  0001                     	;# 
   303  0002                     	;# 
   304  0003                     	;# 
   305  0004                     	;# 
   306  0005                     	;# 
   307  0006                     	;# 
   308  0007                     	;# 
   309  0008                     	;# 
   310  0009                     	;# 
   311  000A                     	;# 
   312  000B                     	;# 
   313  000C                     	;# 
   314  0011                     	;# 
   315  0012                     	;# 
   316  0015                     	;# 
   317  0016                     	;# 
   318  0016                     	;# 
   319  0017                     	;# 
   320  0018                     	;# 
   321  0019                     	;# 
   322  001A                     	;# 
   323  001B                     	;# 
   324  001C                     	;# 
   325  001E                     	;# 
   326  001F                     	;# 
   327  008C                     	;# 
   328  0091                     	;# 
   329  0092                     	;# 
   330  0095                     	;# 
   331  0096                     	;# 
   332  0097                     	;# 
   333  0098                     	;# 
   334  0099                     	;# 
   335  009A                     	;# 
   336  009B                     	;# 
   337  009B                     	;# 
   338  009C                     	;# 
   339  009D                     	;# 
   340  009E                     	;# 
   341  010C                     	;# 
   342  0111                     	;# 
   343  0112                     	;# 
   344  0115                     	;# 
   345  0116                     	;# 
   346  0117                     	;# 
   347  0118                     	;# 
   348  0119                     	;# 
   349  011A                     	;# 
   350  011B                     	;# 
   351  011D                     	;# 
   352  011D                     	;# 
   353  018C                     	;# 
   354  0191                     	;# 
   355  0191                     	;# 
   356  0192                     	;# 
   357  0193                     	;# 
   358  0193                     	;# 
   359  0193                     	;# 
   360  0194                     	;# 
   361  0195                     	;# 
   362  0196                     	;# 
   363  0197                     	;# 
   364  0199                     	;# 
   365  019A                     	;# 
   366  019B                     	;# 
   367  019B                     	;# 
   368  019B                     	;# 
   369  019B                     	;# 
   370  019C                     	;# 
   371  019C                     	;# 
   372  019D                     	;# 
   373  019E                     	;# 
   374  019F                     	;# 
   375  020C                     	;# 
   376  0211                     	;# 
   377  0211                     	;# 
   378  0212                     	;# 
   379  0212                     	;# 
   380  0213                     	;# 
   381  0213                     	;# 
   382  0214                     	;# 
   383  0214                     	;# 
   384  0215                     	;# 
   385  0215                     	;# 
   386  0215                     	;# 
   387  0216                     	;# 
   388  0216                     	;# 
   389  0217                     	;# 
   390  0217                     	;# 
   391  0291                     	;# 
   392  0291                     	;# 
   393  0292                     	;# 
   394  0293                     	;# 
   395  0294                     	;# 
   396  0295                     	;# 
   397  0295                     	;# 
   398  0296                     	;# 
   399  0391                     	;# 
   400  0392                     	;# 
   401  0393                     	;# 
   402  039A                     	;# 
   403  039C                     	;# 
   404  039D                     	;# 
   405  039E                     	;# 
   406  039F                     	;# 
   407  0FE4                     	;# 
   408  0FE5                     	;# 
   409  0FE6                     	;# 
   410  0FE7                     	;# 
   411  0FE8                     	;# 
   412  0FE9                     	;# 
   413  0FEA                     	;# 
   414  0FEB                     	;# 
   415  0FED                     	;# 
   416  0FEE                     	;# 
   417  0FEF                     	;# 
   418  0000                     	;# 
   419  0001                     	;# 
   420  0002                     	;# 
   421  0003                     	;# 
   422  0004                     	;# 
   423  0005                     	;# 
   424  0006                     	;# 
   425  0007                     	;# 
   426  0008                     	;# 
   427  0009                     	;# 
   428  000A                     	;# 
   429  000B                     	;# 
   430  000C                     	;# 
   431  0011                     	;# 
   432  0012                     	;# 
   433  0015                     	;# 
   434  0016                     	;# 
   435  0016                     	;# 
   436  0017                     	;# 
   437  0018                     	;# 
   438  0019                     	;# 
   439  001A                     	;# 
   440  001B                     	;# 
   441  001C                     	;# 
   442  001E                     	;# 
   443  001F                     	;# 
   444  008C                     	;# 
   445  0091                     	;# 
   446  0092                     	;# 
   447  0095                     	;# 
   448  0096                     	;# 
   449  0097                     	;# 
   450  0098                     	;# 
   451  0099                     	;# 
   452  009A                     	;# 
   453  009B                     	;# 
   454  009B                     	;# 
   455  009C                     	;# 
   456  009D                     	;# 
   457  009E                     	;# 
   458  010C                     	;# 
   459  0111                     	;# 
   460  0112                     	;# 
   461  0115                     	;# 
   462  0116                     	;# 
   463  0117                     	;# 
   464  0118                     	;# 
   465  0119                     	;# 
   466  011A                     	;# 
   467  011B                     	;# 
   468  011D                     	;# 
   469  011D                     	;# 
   470  018C                     	;# 
   471  0191                     	;# 
   472  0191                     	;# 
   473  0192                     	;# 
   474  0193                     	;# 
   475  0193                     	;# 
   476  0193                     	;# 
   477  0194                     	;# 
   478  0195                     	;# 
   479  0196                     	;# 
   480  0197                     	;# 
   481  0199                     	;# 
   482  019A                     	;# 
   483  019B                     	;# 
   484  019B                     	;# 
   485  019B                     	;# 
   486  019B                     	;# 
   487  019C                     	;# 
   488  019C                     	;# 
   489  019D                     	;# 
   490  019E                     	;# 
   491  019F                     	;# 
   492  020C                     	;# 
   493  0211                     	;# 
   494  0211                     	;# 
   495  0212                     	;# 
   496  0212                     	;# 
   497  0213                     	;# 
   498  0213                     	;# 
   499  0214                     	;# 
   500  0214                     	;# 
   501  0215                     	;# 
   502  0215                     	;# 
   503  0215                     	;# 
   504  0216                     	;# 
   505  0216                     	;# 
   506  0217                     	;# 
   507  0217                     	;# 
   508  0291                     	;# 
   509  0291                     	;# 
   510  0292                     	;# 
   511  0293                     	;# 
   512  0294                     	;# 
   513  0295                     	;# 
   514  0295                     	;# 
   515  0296                     	;# 
   516  0391                     	;# 
   517  0392                     	;# 
   518  0393                     	;# 
   519  039A                     	;# 
   520  039C                     	;# 
   521  039D                     	;# 
   522  039E                     	;# 
   523  039F                     	;# 
   524  0FE4                     	;# 
   525  0FE5                     	;# 
   526  0FE6                     	;# 
   527  0FE7                     	;# 
   528  0FE8                     	;# 
   529  0FE9                     	;# 
   530  0FEA                     	;# 
   531  0FEB                     	;# 
   532  0FED                     	;# 
   533  0FEE                     	;# 
   534  0FEF                     	;# 
   535                           
   536                           	psect	idataBANK1
   537  07FF                     __pidataBANK1:	
   538                           
   539                           ;initializer for _first_i2c
   540  07FF  3401               	retlw	1
   541                           
   542                           	psect	stringtext1
   543  0800                     __pstringtext1:	
   544  0800                     _RX_ELMNTS:	
   545  0800  341D               	retlw	29
   546  0801                     __end_of_RX_ELMNTS:	
   547  0003                     _STATUSbits	set	3
   548  000B                     _INTCON	set	11
   549  0012                     _PIR2bits	set	18
   550  000B                     _INTCONbits	set	11
   551  0011                     _PIR1bits	set	17
   552  0092                     _PIE2bits	set	146
   553  009E                     _ADCON1	set	158
   554  0095                     _OPTION_REGbits	set	149
   555  008C                     _TRISA	set	140
   556  0099                     _OSCCON	set	153
   557  0091                     _PIE1bits	set	145
   558  009B                     _ADRESL	set	155
   559  009C                     _ADRESH	set	156
   560  009D                     _ADCON0bits	set	157
   561  009D                     _ADCON0	set	157
   562  010C                     _LATAbits	set	268
   563  0191                     _EEADR	set	401
   564  0196                     _EECON2	set	406
   565  0193                     _EEDATA	set	403
   566  0195                     _EECON1	set	405
   567  0195                     _EECON1bits	set	405
   568  018C                     _ANSELA	set	396
   569  0212                     _SSP1ADD	set	530
   570  0217                     _SSP1CON3bits	set	535
   571  0216                     _SSP1CON2bits	set	534
   572  0215                     _SSP1CON1	set	533
   573  0214                     _SSP1STAT	set	532
   574  020C                     _WPUA	set	524
   575  0215                     _SSP1CON1bits	set	533
   576  0211                     _SSP1BUF	set	529
   577  0214                     _SSP1STATbits	set	532
   578                           
   579                           ; #config settings
   580  0000                     
   581                           	psect	cinit
   582  0081                     start_initialization:	
   583  0081                     __initialization:	
   584                           
   585                           ; Initialize objects allocated to BANK1
   586  0081  0021               	movlb	1	; select bank1
   587  0082  3187  27FF  3180   	fcall	__pidataBANK1	;fetch initializer
   588  0085  00E9               	movwf	__pdataBANK1& (0+127)
   589                           
   590                           ; Clear objects allocated to COMMON
   591  0086  01FC               	clrf	__pbssCOMMON& (0+127)
   592                           
   593                           ; Clear objects allocated to BANK1
   594  0087  30A0               	movlw	low __pbssBANK1
   595  0088  0084               	movwf	4
   596  0089  3000               	movlw	high __pbssBANK1
   597  008A  0085               	movwf	5
   598  008B  302C               	movlw	44
   599  008C  318A  224E         	fcall	clear_ram0
   600  008E                     end_of_initialization:	
   601                           ;End of C runtime variable initialization code
   602                           
   603  008E                     __end_of__initialization:	
   604  008E  107E               	bcf	int$flags,0	;clear compiler interrupt flag (level 1)
   605  008F  0020               	movlb	0
   606  0090  3180  2892         	ljmp	_main	;jump to C main() function
   607                           
   608                           	psect	bssCOMMON
   609  007C                     __pbssCOMMON:	
   610  007C                     _index_i2c:	
   611  007C                     	ds	1
   612                           
   613                           	psect	bssBANK1
   614  00A0                     __pbssBANK1:	
   615  00A0                     _I2C_buffer:	
   616  00A0                     	ds	29
   617  00BD                     _vacc:	
   618  00BD                     	ds	4
   619  00C1                     _iacc:	
   620  00C1                     	ds	4
   621  00C5                     _adc:	
   622  00C5                     	ds	4
   623  00C9                     _errno:	
   624  00C9                     	ds	2
   625  00CB                     isr@junk:	
   626  00CB                     	ds	1
   627                           
   628                           	psect	dataBANK1
   629  00E9                     __pdataBANK1:	
   630  00E9                     _first_i2c:	
   631  00E9                     	ds	1
   632                           
   633                           	psect	clrtext
   634  0A4E                     clear_ram0:	
   635                           ;	Called with FSR0 containing the base address, and
   636                           ;	WREG with the size to clear
   637                           
   638  0A4E  0064               	clrwdt	;clear the watchdog before getting into this loop
   639  0A4F                     clrloop0:	
   640  0A4F  0180               	clrf	0	;clear RAM location pointed to by FSR
   641  0A50  3101               	addfsr 0,1
   642  0A51  0B89               	decfsz	9,f	;Have we reached the end of clearing yet?
   643  0A52  2A4F               	goto	clrloop0	;have we reached the end yet?
   644  0A53  3400               	retlw	0	;all done for this memory range, return
   645                           
   646                           	psect	cstackBANK1
   647  00CC                     __pcstackBANK1:	
   648  00CC                     ___fladd@signs:	
   649  00CC                     sqrt@sign:	
   650                           ; 1 bytes @ 0x0
   651                           
   652                           
   653                           ; 1 bytes @ 0x0
   654  00CC                     	ds	1
   655  00CD                     ___fladd@aexp:	
   656  00CD                     sqrt@i:	
   657                           ; 1 bytes @ 0x1
   658                           
   659                           
   660                           ; 1 bytes @ 0x1
   661  00CD                     	ds	1
   662  00CE                     ___fladd@bexp:	
   663  00CE                     sqrt@tfrac:	
   664                           ; 1 bytes @ 0x2
   665                           
   666                           
   667                           ; 4 bytes @ 0x2
   668  00CE                     	ds	1
   669  00CF                     ___fladd@grs:	
   670                           
   671                           ; 1 bytes @ 0x3
   672  00CF                     	ds	3
   673  00D2                     sqrt@p:	
   674                           
   675                           ; 1 bytes @ 0x6
   676  00D2                     	ds	1
   677  00D3                     sqrt@grs:	
   678                           
   679                           ; 4 bytes @ 0x7
   680  00D3                     	ds	4
   681  00D7                     sqrt@exp:	
   682                           
   683                           ; 2 bytes @ 0xB
   684  00D7                     	ds	2
   685  00D9                     sqrt@root:	
   686                           
   687                           ; 4 bytes @ 0xD
   688  00D9                     	ds	4
   689  00DD                     sqrt@frac:	
   690                           
   691                           ; 4 bytes @ 0x11
   692  00DD                     	ds	4
   693  00E1                     ?_main:	
   694  00E1                     main@argc:	
   695                           ; 2 bytes @ 0x15
   696                           
   697                           
   698                           ; 2 bytes @ 0x15
   699  00E1                     	ds	2
   700  00E3                     main@argv:	
   701                           
   702                           ; 2 bytes @ 0x17
   703  00E3                     	ds	2
   704  00E5                     ??_main:	
   705                           
   706                           ; 1 bytes @ 0x19
   707  00E5                     	ds	4
   708                           
   709                           	psect	cstackCOMMON
   710  0070                     __pcstackCOMMON:	
   711  0070                     ?_eeprom_read:	
   712  0070                     ?_init_I2C_buffer:	
   713                           ; 1 bytes @ 0x0
   714                           
   715  0070                     ?_isr:	
   716                           ; 1 bytes @ 0x0
   717                           
   718  0070                     ??_isr:	
   719                           ; 1 bytes @ 0x0
   720                           
   721                           
   722                           ; 1 bytes @ 0x0
   723  0070                     	ds	1
   724  0071                     ??_eeprom_read:	
   725  0071                     ?_eeprom_write:	
   726                           ; 1 bytes @ 0x1
   727                           
   728  0071                     ?__Umul8_16:	
   729                           ; 1 bytes @ 0x1
   730                           
   731  0071                     ?_ADC_read:	
   732                           ; 2 bytes @ 0x1
   733                           
   734  0071                     eeprom_write@value:	
   735                           ; 2 bytes @ 0x1
   736                           
   737  0071                     __Umul8_16@multiplicand:	
   738                           ; 1 bytes @ 0x1
   739                           
   740                           
   741                           ; 1 bytes @ 0x1
   742  0071                     	ds	1
   743  0072                     ??_eeprom_write:	
   744                           
   745                           ; 1 bytes @ 0x2
   746  0072                     	ds	1
   747  0073                     ??__Umul8_16:	
   748  0073                     ??_ADC_read:	
   749                           ; 1 bytes @ 0x3
   750                           
   751                           
   752                           ; 1 bytes @ 0x3
   753  0073                     	ds	1
   754  0074                     ADC_read@channel:	
   755  0074                     eeprom_read@addr:	
   756                           ; 1 bytes @ 0x4
   757                           
   758  0074                     eeprom_write@addr:	
   759                           ; 1 bytes @ 0x4
   760                           
   761                           
   762                           ; 1 bytes @ 0x4
   763  0074                     	ds	1
   764  0075                     ??_init_I2C_buffer:	
   765  0075                     ?___xxtofl:	
   766                           ; 1 bytes @ 0x5
   767                           
   768  0075                     __Umul8_16@product:	
   769                           ; 4 bytes @ 0x5
   770                           
   771  0075                     ___xxtofl@val:	
   772                           ; 2 bytes @ 0x5
   773                           
   774                           
   775                           ; 4 bytes @ 0x5
   776  0075                     	ds	2
   777  0077                     __Umul8_16@word_mpld:	
   778                           
   779                           ; 2 bytes @ 0x7
   780  0077                     	ds	2
   781  0079                     __Umul8_16@multiplier:	
   782                           
   783                           ; 1 bytes @ 0x9
   784  0079                     	ds	1
   785  007A                     main@i:	
   786                           
   787                           ; 2 bytes @ 0xA
   788  007A                     	ds	2
   789                           
   790                           	psect	cstackBANK0
   791  0020                     __pcstackBANK0:	
   792  0020                     ??___xxtofl:	
   793                           
   794                           ; 1 bytes @ 0x0
   795  0020                     	ds	4
   796  0024                     ___xxtofl@sign:	
   797                           
   798                           ; 1 bytes @ 0x4
   799  0024                     	ds	1
   800  0025                     ___xxtofl@exp:	
   801                           
   802                           ; 1 bytes @ 0x5
   803  0025                     	ds	1
   804  0026                     ___xxtofl@arg:	
   805                           
   806                           ; 4 bytes @ 0x6
   807  0026                     	ds	4
   808  002A                     ?___flmul:	
   809  002A                     ___flmul@b:	
   810                           ; 4 bytes @ 0xA
   811                           
   812                           
   813                           ; 4 bytes @ 0xA
   814  002A                     	ds	4
   815  002E                     ___flmul@a:	
   816                           
   817                           ; 4 bytes @ 0xE
   818  002E                     	ds	4
   819  0032                     ??___flmul:	
   820                           
   821                           ; 1 bytes @ 0x12
   822  0032                     	ds	5
   823  0037                     ___flmul@sign:	
   824                           
   825                           ; 1 bytes @ 0x17
   826  0037                     	ds	1
   827  0038                     ___flmul@aexp:	
   828                           
   829                           ; 1 bytes @ 0x18
   830  0038                     	ds	1
   831  0039                     ___flmul@bexp:	
   832                           
   833                           ; 1 bytes @ 0x19
   834  0039                     	ds	1
   835  003A                     ___flmul@grs:	
   836                           
   837                           ; 4 bytes @ 0x1A
   838  003A                     	ds	4
   839  003E                     ___flmul@prod:	
   840                           
   841                           ; 4 bytes @ 0x1E
   842  003E                     	ds	4
   843  0042                     ___flmul@temp:	
   844                           
   845                           ; 2 bytes @ 0x22
   846  0042                     	ds	2
   847  0044                     ?___fldiv:	
   848  0044                     ___fldiv@a:	
   849                           ; 4 bytes @ 0x24
   850                           
   851                           
   852                           ; 4 bytes @ 0x24
   853  0044                     	ds	4
   854  0048                     ___fldiv@b:	
   855                           
   856                           ; 4 bytes @ 0x28
   857  0048                     	ds	4
   858  004C                     ??___fldiv:	
   859                           
   860                           ; 1 bytes @ 0x2C
   861  004C                     	ds	5
   862  0051                     ___fldiv@rem:	
   863                           
   864                           ; 4 bytes @ 0x31
   865  0051                     	ds	4
   866  0055                     ___fldiv@sign:	
   867                           
   868                           ; 1 bytes @ 0x35
   869  0055                     	ds	1
   870  0056                     ___fldiv@new_exp:	
   871                           
   872                           ; 2 bytes @ 0x36
   873  0056                     	ds	2
   874  0058                     ___fldiv@grs:	
   875                           
   876                           ; 4 bytes @ 0x38
   877  0058                     	ds	4
   878  005C                     ___fldiv@bexp:	
   879                           
   880                           ; 1 bytes @ 0x3C
   881  005C                     	ds	1
   882  005D                     ___fldiv@aexp:	
   883                           
   884                           ; 1 bytes @ 0x3D
   885  005D                     	ds	1
   886  005E                     ?_sqrt:	
   887  005E                     ?___fladd:	
   888                           ; 4 bytes @ 0x3E
   889                           
   890  005E                     ___fladd@b:	
   891                           ; 4 bytes @ 0x3E
   892                           
   893  005E                     sqrt@a:	
   894                           ; 4 bytes @ 0x3E
   895                           
   896                           
   897                           ; 4 bytes @ 0x3E
   898  005E                     	ds	4
   899  0062                     ??_sqrt:	
   900  0062                     ___fladd@a:	
   901                           ; 1 bytes @ 0x42
   902                           
   903                           
   904                           ; 4 bytes @ 0x42
   905  0062                     	ds	4
   906  0066                     ??___fladd:	
   907                           
   908                           ; 1 bytes @ 0x46
   909  0066                     	ds	8
   910                           
   911                           	psect	maintext
   912  0092                     __pmaintext:	
   913 ;;
   914 ;;Main: autosize = 0, tempsize = 4, incstack = 0, save=0
   915 ;;
   916 ;; *************** function _main *****************
   917 ;; Defined at:
   918 ;;		line 176 in file "main.c"
   919 ;; Parameters:    Size  Location     Type
   920 ;;  argc            2   21[BANK1 ] int 
   921 ;;  argv            2   23[BANK1 ] PTR PTR unsigned char 
   922 ;; Auto vars:     Size  Location     Type
   923 ;;  i               2   10[COMMON] int 
   924 ;; Return value:  Size  Location     Type
   925 ;;                  2   21[BANK1 ] int 
   926 ;; Registers used:
   927 ;;		wreg, fsr1l, fsr1h, status,2, status,0, pclath, cstack
   928 ;; Tracked objects:
   929 ;;		On entry : B1F/0
   930 ;;		On exit  : 1F/2
   931 ;;		Unchanged: 0/0
   932 ;; Data sizes:     COMMON   BANK0   BANK1   BANK2
   933 ;;      Params:         0       0       4       0
   934 ;;      Locals:         2       0       0       0
   935 ;;      Temps:          0       0       4       0
   936 ;;      Totals:         2       0       8       0
   937 ;;Total ram usage:       10 bytes
   938 ;; Hardware stack levels required when called:    3
   939 ;; This function calls:
   940 ;;		_ADC_read
   941 ;;		___fladd
   942 ;;		___fldiv
   943 ;;		___flmul
   944 ;;		___xxtofl
   945 ;;		_eeprom_write
   946 ;;		_init_I2C_buffer
   947 ;;		_sqrt
   948 ;; This function is called by:
   949 ;;		Startup code after reset
   950 ;; This function uses a non-reentrant model
   951 ;;
   952                           
   953                           
   954                           ;psect for function _main
   955  0092                     _main:	
   956                           
   957                           ;main.c: 177: OSCCON = 0b11110000;
   958                           
   959                           ;incstack = 0
   960                           ; Regs used in _main: [wreg+fsr1l+fsr1h+status,2+status,0+pclath+cstack]
   961  0092  30F0               	movlw	240
   962  0093  0021               	movlb	1	; select bank1
   963  0094  0099               	movwf	25	;volatile
   964                           
   965                           ;main.c: 178: init_I2C_buffer();
   966  0095  3187  2735  3180   	fcall	_init_I2C_buffer
   967                           
   968                           ;main.c: 179: TRISA = 0b00011111;
   969  0098  301F               	movlw	31
   970  0099  008C               	movwf	12	;volatile
   971                           
   972                           ;main.c: 180: ANSELA = 0b00010001;
   973  009A  3011               	movlw	17
   974  009B  0023               	movlb	3	; select bank3
   975  009C  008C               	movwf	12	;volatile
   976                           
   977                           ;main.c: 181: WPUA = 0b00001110;
   978  009D  300E               	movlw	14
   979  009E  0024               	movlb	4	; select bank4
   980  009F  008C               	movwf	12	;volatile
   981                           
   982                           ;main.c: 182: OPTION_REGbits.nWPUEN = 0;
   983  00A0  0021               	movlb	1	; select bank1
   984  00A1  1395               	bcf	21,7	;volatile
   985                           
   986                           ;main.c: 183: ADCON1 = 0b10100000;
   987  00A2  30A0               	movlw	160
   988  00A3  009E               	movwf	30	;volatile
   989                           
   990                           ;main.c: 184: SSP1STAT = 0b10000000;
   991  00A4  3080               	movlw	128
   992  00A5  0024               	movlb	4	; select bank4
   993  00A6  0094               	movwf	20	;volatile
   994                           
   995                           ;main.c: 185: SSP1CON1 = 0b00110110;
   996  00A7  3036               	movlw	54
   997  00A8  0095               	movwf	21	;volatile
   998                           
   999                           ;main.c: 186: SSP1CON2bits.SEN = 1;
  1000  00A9  1416               	bsf	22,0	;volatile
  1001                           
  1002                           ;main.c: 187: SSP1CON3bits.BOEN = 1;
  1003  00AA  1617               	bsf	23,4	;volatile
  1004                           
  1005                           ;main.c: 188: SSP1CON3bits.SDAHT = 1;
  1006  00AB  1597               	bsf	23,3	;volatile
  1007                           
  1008                           ;main.c: 189: SSP1CON3bits.SBCDE = 1;
  1009  00AC  1517               	bsf	23,2	;volatile
  1010                           
  1011                           ;main.c: 190: SSP1ADD = (char) (0x3E << 1);
  1012  00AD  307C               	movlw	124
  1013  00AE  0092               	movwf	18	;volatile
  1014                           
  1015                           ;main.c: 191: PIR1bits.SSP1IF = 0;
  1016  00AF  0020               	movlb	0	; select bank0
  1017  00B0  1191               	bcf	17,3	;volatile
  1018                           
  1019                           ;main.c: 192: PIR2bits.BCL1IF = 0;
  1020  00B1  1192               	bcf	18,3	;volatile
  1021                           
  1022                           ;main.c: 193: PIE2bits.BCL1IE = 1;
  1023  00B2  0021               	movlb	1	; select bank1
  1024  00B3  1592               	bsf	18,3	;volatile
  1025                           
  1026                           ;main.c: 194: PIE1bits.SSP1IE = 1;
  1027  00B4  1591               	bsf	17,3	;volatile
  1028                           
  1029                           ;main.c: 195: INTCONbits.PEIE = 1;
  1030  00B5  170B               	bsf	11,6	;volatile
  1031                           
  1032                           ;main.c: 196: INTCON = 0b01000000;
  1033  00B6  3040               	movlw	64
  1034  00B7  008B               	movwf	11	;volatile
  1035                           
  1036                           ;main.c: 197: INTCONbits.GIE = 1;
  1037  00B8  178B               	bsf	11,7	;volatile
  1038  00B9                     L1:	
  1039                           
  1040                           ;main.c: 199: LATAbits.LATA5 = 1;
  1041  00B9  0022               	movlb	2	; select bank2
  1042  00BA  168C               	bsf	12,5	;volatile
  1043  00BB                     l106:	
  1044                           ;main.c: 201: while (1) {
  1045                           
  1046  00BB  0064               	clrwdt	;# 
  1047                           
  1048                           ;main.c: 203: if (I2C_buffer.data.RESET == 1) {
  1049  00BC  0021               	movlb	1	; select bank1
  1050  00BD  0321               	decf	(_I2C_buffer^(0+128)+1),w	;volatile
  1051  00BE  1903               	btfsc	3,2
  1052  00BF  0001               	reset	;# 
  1053                           
  1054                           ;main.c: 205: };main.c: 207: if (I2C_buffer.data.SAVE == 1) {
  1055  00C0  0021               	movlb	1	; select bank1
  1056  00C1  0322               	decf	(_I2C_buffer^(0+128)+2),w	;volatile
  1057  00C2  1D03               	btfss	3,2
  1058  00C3  2928               	goto	l3245
  1059                           
  1060                           ;main.c: 208: eeprom_write(0, I2C_buffer.byte[0x03]);
  1061  00C4  0823               	movf	(_I2C_buffer^(0+128)+3),w	;volatile
  1062  00C5  00E5               	movwf	??_main^(0+128)
  1063  00C6  0865               	movf	??_main^(0+128),w
  1064  00C7  00F1               	movwf	eeprom_write@value
  1065  00C8  3000               	movlw	0
  1066  00C9  3187  27AB  3180   	fcall	_eeprom_write
  1067                           
  1068                           ;main.c: 209: eeprom_write(1, I2C_buffer.byte[0x04]);
  1069  00CC  0021               	movlb	1	; select bank1
  1070  00CD  0824               	movf	(_I2C_buffer^(0+128)+4),w	;volatile
  1071  00CE  00E5               	movwf	??_main^(0+128)
  1072  00CF  0865               	movf	??_main^(0+128),w
  1073  00D0  00F1               	movwf	eeprom_write@value
  1074  00D1  3001               	movlw	1
  1075  00D2  3187  27AB  3180   	fcall	_eeprom_write
  1076                           
  1077                           ;main.c: 210: eeprom_write(2, I2C_buffer.byte[0x05]);
  1078  00D5  0021               	movlb	1	; select bank1
  1079  00D6  0825               	movf	(_I2C_buffer^(0+128)+5),w	;volatile
  1080  00D7  00E5               	movwf	??_main^(0+128)
  1081  00D8  0865               	movf	??_main^(0+128),w
  1082  00D9  00F1               	movwf	eeprom_write@value
  1083  00DA  3002               	movlw	2
  1084  00DB  3187  27AB  3180   	fcall	_eeprom_write
  1085                           
  1086                           ;main.c: 211: eeprom_write(3, I2C_buffer.byte[0x06]);
  1087  00DE  0021               	movlb	1	; select bank1
  1088  00DF  0826               	movf	(_I2C_buffer^(0+128)+6),w	;volatile
  1089  00E0  00E5               	movwf	??_main^(0+128)
  1090  00E1  0865               	movf	??_main^(0+128),w
  1091  00E2  00F1               	movwf	eeprom_write@value
  1092  00E3  3003               	movlw	3
  1093  00E4  3187  27AB  3180   	fcall	_eeprom_write
  1094                           
  1095                           ;main.c: 212: eeprom_write(4, I2C_buffer.byte[0x07]);
  1096  00E7  0021               	movlb	1	; select bank1
  1097  00E8  0827               	movf	(_I2C_buffer^(0+128)+7),w	;volatile
  1098  00E9  00E5               	movwf	??_main^(0+128)
  1099  00EA  0865               	movf	??_main^(0+128),w
  1100  00EB  00F1               	movwf	eeprom_write@value
  1101  00EC  3004               	movlw	4
  1102  00ED  3187  27AB  3180   	fcall	_eeprom_write
  1103                           
  1104                           ;main.c: 213: eeprom_write(5, I2C_buffer.byte[0x08]);
  1105  00F0  0021               	movlb	1	; select bank1
  1106  00F1  0828               	movf	(_I2C_buffer^(0+128)+8),w	;volatile
  1107  00F2  00E5               	movwf	??_main^(0+128)
  1108  00F3  0865               	movf	??_main^(0+128),w
  1109  00F4  00F1               	movwf	eeprom_write@value
  1110  00F5  3005               	movlw	5
  1111  00F6  3187  27AB  3180   	fcall	_eeprom_write
  1112                           
  1113                           ;main.c: 214: eeprom_write(6, I2C_buffer.byte[0x09]);
  1114  00F9  0021               	movlb	1	; select bank1
  1115  00FA  0829               	movf	(_I2C_buffer^(0+128)+9),w	;volatile
  1116  00FB  00E5               	movwf	??_main^(0+128)
  1117  00FC  0865               	movf	??_main^(0+128),w
  1118  00FD  00F1               	movwf	eeprom_write@value
  1119  00FE  3006               	movlw	6
  1120  00FF  3187  27AB  3180   	fcall	_eeprom_write
  1121                           
  1122                           ;main.c: 215: eeprom_write(7, I2C_buffer.byte[0x0A]);
  1123  0102  0021               	movlb	1	; select bank1
  1124  0103  082A               	movf	(_I2C_buffer^(0+128)+10),w	;volatile
  1125  0104  00E5               	movwf	??_main^(0+128)
  1126  0105  0865               	movf	??_main^(0+128),w
  1127  0106  00F1               	movwf	eeprom_write@value
  1128  0107  3007               	movlw	7
  1129  0108  3187  27AB  3180   	fcall	_eeprom_write
  1130                           
  1131                           ;main.c: 216: eeprom_write(8, I2C_buffer.byte[0x0B]);
  1132  010B  0021               	movlb	1	; select bank1
  1133  010C  082B               	movf	(_I2C_buffer^(0+128)+11),w	;volatile
  1134  010D  00E5               	movwf	??_main^(0+128)
  1135  010E  0865               	movf	??_main^(0+128),w
  1136  010F  00F1               	movwf	eeprom_write@value
  1137  0110  3008               	movlw	8
  1138  0111  3187  27AB  3180   	fcall	_eeprom_write
  1139                           
  1140                           ;main.c: 217: eeprom_write(9, I2C_buffer.byte[0x0C]);
  1141  0114  0021               	movlb	1	; select bank1
  1142  0115  082C               	movf	(_I2C_buffer^(0+128)+12),w	;volatile
  1143  0116  00E5               	movwf	??_main^(0+128)
  1144  0117  0865               	movf	??_main^(0+128),w
  1145  0118  00F1               	movwf	eeprom_write@value
  1146  0119  3009               	movlw	9
  1147  011A  3187  27AB  3180   	fcall	_eeprom_write
  1148                           
  1149                           ;main.c: 218: I2C_buffer.data.SAVE = 0;
  1150  011D  0021               	movlb	1	; select bank1
  1151  011E  01A2               	clrf	(_I2C_buffer^(0+128)+2)	;volatile
  1152                           
  1153                           ;main.c: 219: _delay((unsigned long)((10)*(32000000/4000.0)));
  1154  011F  3068               	movlw	104
  1155  0120  0021               	movlb	1	; select bank1
  1156  0121  00E5               	movwf	??_main^(0+128)
  1157  0122  30E4               	movlw	228
  1158  0123                     u4527:	
  1159  0123  0B89               	decfsz	9,f
  1160  0124  2923               	goto	u4527
  1161  0125  0BE5               	decfsz	??_main^(0+128),f
  1162  0126  2923               	goto	u4527
  1163  0127  0000               	nop
  1164  0128                     l3245:	
  1165                           
  1166                           ;main.c: 220: };main.c: 222: iacc = 0;
  1167  0128  3000               	movlw	0
  1168  0129  0021               	movlb	1	; select bank1
  1169  012A  00C4               	movwf	(_iacc+3)^(0+128)
  1170  012B  3000               	movlw	0
  1171  012C  00C3               	movwf	(_iacc+2)^(0+128)
  1172  012D  3000               	movlw	0
  1173  012E  00C2               	movwf	(_iacc+1)^(0+128)
  1174  012F  3000               	movlw	0
  1175  0130  00C1               	movwf	_iacc^(0+128)
  1176                           
  1177                           ;main.c: 223: vacc = 0;
  1178  0131  3000               	movlw	0
  1179  0132  00C0               	movwf	(_vacc+3)^(0+128)
  1180  0133  3000               	movlw	0
  1181  0134  00BF               	movwf	(_vacc+2)^(0+128)
  1182  0135  3000               	movlw	0
  1183  0136  00BE               	movwf	(_vacc+1)^(0+128)
  1184  0137  3000               	movlw	0
  1185  0138  00BD               	movwf	_vacc^(0+128)
  1186                           
  1187                           ;main.c: 225: for (int i = 0; i < I2C_buffer.data.samples; i++)
  1188  0139  01FA               	clrf	main@i
  1189  013A  01FB               	clrf	main@i+1
  1190  013B                     l3259:	
  1191  013B  087B               	movf	main@i+1,w
  1192  013C  3A80               	xorlw	128
  1193  013D  00E5               	movwf	??_main^(0+128)
  1194  013E  082C               	movf	((_I2C_buffer+1)^(0+128)+11),w	;volatile
  1195  013F  3A80               	xorlw	128
  1196  0140  0265               	subwf	??_main^(0+128),w
  1197  0141  1D03               	skipz
  1198  0142  2945               	goto	u4495
  1199  0143  082B               	movf	(_I2C_buffer^(0+128)+11),w	;volatile
  1200  0144  027A               	subwf	main@i,w
  1201  0145                     u4495:	
  1202  0145  1803               	btfsc	3,0
  1203  0146  2B4E               	goto	l3261
  1204  0147  0064               	clrwdt	;# 
  1205                           
  1206                           ;main.c: 229: adc = (float) ADC_read(0x00);
  1207  0148  3000               	movlw	0
  1208  0149  318A  2254  3180   	fcall	_ADC_read
  1209  014C  0871               	movf	?_ADC_read,w
  1210  014D  00E5               	movwf	??_main^(0+128)
  1211  014E  0872               	movf	?_ADC_read+1,w
  1212  014F  00E6               	movwf	(??_main^(0+128)+1)
  1213  0150  01E7               	clrf	(??_main^(0+128)+2)
  1214  0151  01E8               	clrf	(??_main^(0+128)+3)
  1215  0152  0868               	movf	(??_main+3)^(0+128),w
  1216  0153  00F8               	movwf	___xxtofl@val+3
  1217  0154  0867               	movf	(??_main+2)^(0+128),w
  1218  0155  00F7               	movwf	___xxtofl@val+2
  1219  0156  0866               	movf	(??_main+1)^(0+128),w
  1220  0157  00F6               	movwf	___xxtofl@val+1
  1221  0158  0865               	movf	??_main^(0+128),w
  1222  0159  00F5               	movwf	___xxtofl@val
  1223  015A  3000               	movlw	0
  1224  015B  3186  269F  3180   	fcall	___xxtofl
  1225  015E  0878               	movf	?___xxtofl+3,w
  1226  015F  0021               	movlb	1	; select bank1
  1227  0160  00C8               	movwf	(_adc+3)^(0+128)
  1228  0161  0877               	movf	?___xxtofl+2,w
  1229  0162  00C7               	movwf	(_adc+2)^(0+128)
  1230  0163  0876               	movf	?___xxtofl+1,w
  1231  0164  00C6               	movwf	(_adc+1)^(0+128)
  1232  0165  0875               	movf	?___xxtofl,w
  1233  0166  00C5               	movwf	_adc^(0+128)
  1234                           
  1235                           ;main.c: 231: adc = ((adc * 3.3F) / 1024.0F) - 1.65F;
  1236  0167  30BF               	movlw	191
  1237  0168  0020               	movlb	0	; select bank0
  1238  0169  00E1               	movwf	___fladd@b+3
  1239  016A  30D3               	movlw	211
  1240  016B  00E0               	movwf	___fladd@b+2
  1241  016C  3033               	movlw	51
  1242  016D  00DF               	movwf	___fladd@b+1
  1243  016E  3033               	movlw	51
  1244  016F  00DE               	movwf	___fladd@b
  1245  0170  3044               	movlw	68
  1246  0171  00C7               	movwf	___fldiv@a+3
  1247  0172  3080               	movlw	128
  1248  0173  00C6               	movwf	___fldiv@a+2
  1249  0174  3000               	movlw	0
  1250  0175  00C5               	movwf	___fldiv@a+1
  1251  0176  3000               	movlw	0
  1252  0177  00C4               	movwf	___fldiv@a
  1253  0178  3040               	movlw	64
  1254  0179  00AD               	movwf	___flmul@b+3
  1255  017A  3053               	movlw	83
  1256  017B  00AC               	movwf	___flmul@b+2
  1257  017C  3033               	movlw	51
  1258  017D  00AB               	movwf	___flmul@b+1
  1259  017E  3033               	movlw	51
  1260  017F  00AA               	movwf	___flmul@b
  1261  0180  0021               	movlb	1	; select bank1
  1262  0181  0848               	movf	(_adc+3)^(0+128),w
  1263  0182  0020               	movlb	0	; select bank0
  1264  0183  00B1               	movwf	___flmul@a+3
  1265  0184  0021               	movlb	1	; select bank1
  1266  0185  0847               	movf	(_adc+2)^(0+128),w
  1267  0186  0020               	movlb	0	; select bank0
  1268  0187  00B0               	movwf	___flmul@a+2
  1269  0188  0021               	movlb	1	; select bank1
  1270  0189  0846               	movf	(_adc+1)^(0+128),w
  1271  018A  0020               	movlb	0	; select bank0
  1272  018B  00AF               	movwf	___flmul@a+1
  1273  018C  0021               	movlb	1	; select bank1
  1274  018D  0845               	movf	_adc^(0+128),w
  1275  018E  0020               	movlb	0	; select bank0
  1276  018F  00AE               	movwf	___flmul@a
  1277  0190  318D  25E8  3180   	fcall	___flmul
  1278  0193  082D               	movf	?___flmul+3,w
  1279  0194  00CB               	movwf	___fldiv@b+3
  1280  0195  082C               	movf	?___flmul+2,w
  1281  0196  00CA               	movwf	___fldiv@b+2
  1282  0197  082B               	movf	?___flmul+1,w
  1283  0198  00C9               	movwf	___fldiv@b+1
  1284  0199  082A               	movf	?___flmul,w
  1285  019A  00C8               	movwf	___fldiv@b
  1286  019B  318A  2272  3180   	fcall	___fldiv
  1287  019E  0847               	movf	?___fldiv+3,w
  1288  019F  00E5               	movwf	___fladd@a+3
  1289  01A0  0846               	movf	?___fldiv+2,w
  1290  01A1  00E4               	movwf	___fladd@a+2
  1291  01A2  0845               	movf	?___fldiv+1,w
  1292  01A3  00E3               	movwf	___fladd@a+1
  1293  01A4  0844               	movf	?___fldiv,w
  1294  01A5  00E2               	movwf	___fladd@a
  1295  01A6  3184  245A  3180   	fcall	___fladd
  1296  01A9  0020               	movlb	0	; select bank0
  1297  01AA  0861               	movf	?___fladd+3,w
  1298  01AB  0021               	movlb	1	; select bank1
  1299  01AC  00C8               	movwf	(_adc+3)^(0+128)
  1300  01AD  0020               	movlb	0	; select bank0
  1301  01AE  0860               	movf	?___fladd+2,w
  1302  01AF  0021               	movlb	1	; select bank1
  1303  01B0  00C7               	movwf	(_adc+2)^(0+128)
  1304  01B1  0020               	movlb	0	; select bank0
  1305  01B2  085F               	movf	?___fladd+1,w
  1306  01B3  0021               	movlb	1	; select bank1
  1307  01B4  00C6               	movwf	(_adc+1)^(0+128)
  1308  01B5  0020               	movlb	0	; select bank0
  1309  01B6  085E               	movf	?___fladd,w
  1310  01B7  0021               	movlb	1	; select bank1
  1311  01B8  00C5               	movwf	_adc^(0+128)
  1312                           
  1313                           ;main.c: 232: adc = (adc / (float)I2C_buffer.data.ctRl) * (float)I2C_buffer.data.ctRatio
      +                          ;
  1314  01B9  0823               	movf	(_I2C_buffer^(0+128)+3),w	;volatile
  1315  01BA  00F5               	movwf	___xxtofl@val
  1316  01BB  0824               	movf	((_I2C_buffer+1)^(0+128)+3),w	;volatile
  1317  01BC  00F6               	movwf	___xxtofl@val+1
  1318  01BD  0D89               	rlf	9,f
  1319  01BE  3B89               	subwfb	9,f
  1320  01BF  0989               	comf	9,f
  1321  01C0  00F7               	movwf	___xxtofl@val+2
  1322  01C1  00F8               	movwf	___xxtofl@val+3
  1323  01C2  3001               	movlw	1
  1324  01C3  3186  269F  3180   	fcall	___xxtofl
  1325  01C6  0878               	movf	?___xxtofl+3,w
  1326  01C7  00AD               	movwf	___flmul@b+3
  1327  01C8  0877               	movf	?___xxtofl+2,w
  1328  01C9  00AC               	movwf	___flmul@b+2
  1329  01CA  0876               	movf	?___xxtofl+1,w
  1330  01CB  00AB               	movwf	___flmul@b+1
  1331  01CC  0875               	movf	?___xxtofl,w
  1332  01CD  00AA               	movwf	___flmul@b
  1333  01CE  0021               	movlb	1	; select bank1
  1334  01CF  0825               	movf	(_I2C_buffer^(0+128)+5),w	;volatile
  1335  01D0  00F5               	movwf	___xxtofl@val
  1336  01D1  0826               	movf	((_I2C_buffer+1)^(0+128)+5),w	;volatile
  1337  01D2  00F6               	movwf	___xxtofl@val+1
  1338  01D3  0D89               	rlf	9,f
  1339  01D4  3B89               	subwfb	9,f
  1340  01D5  0989               	comf	9,f
  1341  01D6  00F7               	movwf	___xxtofl@val+2
  1342  01D7  00F8               	movwf	___xxtofl@val+3
  1343  01D8  3001               	movlw	1
  1344  01D9  3186  269F  3180   	fcall	___xxtofl
  1345  01DC  0878               	movf	?___xxtofl+3,w
  1346  01DD  00C7               	movwf	___fldiv@a+3
  1347  01DE  0877               	movf	?___xxtofl+2,w
  1348  01DF  00C6               	movwf	___fldiv@a+2
  1349  01E0  0876               	movf	?___xxtofl+1,w
  1350  01E1  00C5               	movwf	___fldiv@a+1
  1351  01E2  0875               	movf	?___xxtofl,w
  1352  01E3  00C4               	movwf	___fldiv@a
  1353  01E4  0021               	movlb	1	; select bank1
  1354  01E5  0848               	movf	(_adc+3)^(0+128),w
  1355  01E6  0020               	movlb	0	; select bank0
  1356  01E7  00CB               	movwf	___fldiv@b+3
  1357  01E8  0021               	movlb	1	; select bank1
  1358  01E9  0847               	movf	(_adc+2)^(0+128),w
  1359  01EA  0020               	movlb	0	; select bank0
  1360  01EB  00CA               	movwf	___fldiv@b+2
  1361  01EC  0021               	movlb	1	; select bank1
  1362  01ED  0846               	movf	(_adc+1)^(0+128),w
  1363  01EE  0020               	movlb	0	; select bank0
  1364  01EF  00C9               	movwf	___fldiv@b+1
  1365  01F0  0021               	movlb	1	; select bank1
  1366  01F1  0845               	movf	_adc^(0+128),w
  1367  01F2  0020               	movlb	0	; select bank0
  1368  01F3  00C8               	movwf	___fldiv@b
  1369  01F4  318A  2272  3180   	fcall	___fldiv
  1370  01F7  0847               	movf	?___fldiv+3,w
  1371  01F8  00B1               	movwf	___flmul@a+3
  1372  01F9  0846               	movf	?___fldiv+2,w
  1373  01FA  00B0               	movwf	___flmul@a+2
  1374  01FB  0845               	movf	?___fldiv+1,w
  1375  01FC  00AF               	movwf	___flmul@a+1
  1376  01FD  0844               	movf	?___fldiv,w
  1377  01FE  00AE               	movwf	___flmul@a
  1378  01FF  318D  25E8  3180   	fcall	___flmul
  1379  0202  082D               	movf	?___flmul+3,w
  1380  0203  0021               	movlb	1	; select bank1
  1381  0204  00C8               	movwf	(_adc+3)^(0+128)
  1382  0205  0020               	movlb	0	; select bank0
  1383  0206  082C               	movf	?___flmul+2,w
  1384  0207  0021               	movlb	1	; select bank1
  1385  0208  00C7               	movwf	(_adc+2)^(0+128)
  1386  0209  0020               	movlb	0	; select bank0
  1387  020A  082B               	movf	?___flmul+1,w
  1388  020B  0021               	movlb	1	; select bank1
  1389  020C  00C6               	movwf	(_adc+1)^(0+128)
  1390  020D  0020               	movlb	0	; select bank0
  1391  020E  082A               	movf	?___flmul,w
  1392  020F  0021               	movlb	1	; select bank1
  1393  0210  00C5               	movwf	_adc^(0+128)
  1394                           
  1395                           ;main.c: 233: iacc += adc*adc;
  1396  0211  0848               	movf	(_adc+3)^(0+128),w
  1397  0212  0020               	movlb	0	; select bank0
  1398  0213  00B1               	movwf	___flmul@a+3
  1399  0214  0021               	movlb	1	; select bank1
  1400  0215  0847               	movf	(_adc+2)^(0+128),w
  1401  0216  0020               	movlb	0	; select bank0
  1402  0217  00B0               	movwf	___flmul@a+2
  1403  0218  0021               	movlb	1	; select bank1
  1404  0219  0846               	movf	(_adc+1)^(0+128),w
  1405  021A  0020               	movlb	0	; select bank0
  1406  021B  00AF               	movwf	___flmul@a+1
  1407  021C  0021               	movlb	1	; select bank1
  1408  021D  0845               	movf	_adc^(0+128),w
  1409  021E  0020               	movlb	0	; select bank0
  1410  021F  00AE               	movwf	___flmul@a
  1411  0220  0021               	movlb	1	; select bank1
  1412  0221  0848               	movf	(_adc+3)^(0+128),w
  1413  0222  0020               	movlb	0	; select bank0
  1414  0223  00AD               	movwf	___flmul@b+3
  1415  0224  0021               	movlb	1	; select bank1
  1416  0225  0847               	movf	(_adc+2)^(0+128),w
  1417  0226  0020               	movlb	0	; select bank0
  1418  0227  00AC               	movwf	___flmul@b+2
  1419  0228  0021               	movlb	1	; select bank1
  1420  0229  0846               	movf	(_adc+1)^(0+128),w
  1421  022A  0020               	movlb	0	; select bank0
  1422  022B  00AB               	movwf	___flmul@b+1
  1423  022C  0021               	movlb	1	; select bank1
  1424  022D  0845               	movf	_adc^(0+128),w
  1425  022E  0020               	movlb	0	; select bank0
  1426  022F  00AA               	movwf	___flmul@b
  1427  0230  318D  25E8  3180   	fcall	___flmul
  1428  0233  082D               	movf	?___flmul+3,w
  1429  0234  00E1               	movwf	___fladd@b+3
  1430  0235  082C               	movf	?___flmul+2,w
  1431  0236  00E0               	movwf	___fladd@b+2
  1432  0237  082B               	movf	?___flmul+1,w
  1433  0238  00DF               	movwf	___fladd@b+1
  1434  0239  082A               	movf	?___flmul,w
  1435  023A  00DE               	movwf	___fladd@b
  1436  023B  0021               	movlb	1	; select bank1
  1437  023C  0844               	movf	(_iacc+3)^(0+128),w
  1438  023D  0020               	movlb	0	; select bank0
  1439  023E  00E5               	movwf	___fladd@a+3
  1440  023F  0021               	movlb	1	; select bank1
  1441  0240  0843               	movf	(_iacc+2)^(0+128),w
  1442  0241  0020               	movlb	0	; select bank0
  1443  0242  00E4               	movwf	___fladd@a+2
  1444  0243  0021               	movlb	1	; select bank1
  1445  0244  0842               	movf	(_iacc+1)^(0+128),w
  1446  0245  0020               	movlb	0	; select bank0
  1447  0246  00E3               	movwf	___fladd@a+1
  1448  0247  0021               	movlb	1	; select bank1
  1449  0248  0841               	movf	_iacc^(0+128),w
  1450  0249  0020               	movlb	0	; select bank0
  1451  024A  00E2               	movwf	___fladd@a
  1452  024B  3184  245A  3180   	fcall	___fladd
  1453  024E  0020               	movlb	0	; select bank0
  1454  024F  0861               	movf	?___fladd+3,w
  1455  0250  0021               	movlb	1	; select bank1
  1456  0251  00C4               	movwf	(_iacc+3)^(0+128)
  1457  0252  0020               	movlb	0	; select bank0
  1458  0253  0860               	movf	?___fladd+2,w
  1459  0254  0021               	movlb	1	; select bank1
  1460  0255  00C3               	movwf	(_iacc+2)^(0+128)
  1461  0256  0020               	movlb	0	; select bank0
  1462  0257  085F               	movf	?___fladd+1,w
  1463  0258  0021               	movlb	1	; select bank1
  1464  0259  00C2               	movwf	(_iacc+1)^(0+128)
  1465  025A  0020               	movlb	0	; select bank0
  1466  025B  085E               	movf	?___fladd,w
  1467  025C  0021               	movlb	1	; select bank1
  1468  025D  00C1               	movwf	_iacc^(0+128)
  1469                           
  1470                           ;main.c: 235: adc = (float) ADC_read(0x03);
  1471  025E  3003               	movlw	3
  1472  025F  318A  2254  3180   	fcall	_ADC_read
  1473  0262  0871               	movf	?_ADC_read,w
  1474  0263  00E5               	movwf	??_main^(0+128)
  1475  0264  0872               	movf	?_ADC_read+1,w
  1476  0265  00E6               	movwf	(??_main^(0+128)+1)
  1477  0266  01E7               	clrf	(??_main^(0+128)+2)
  1478  0267  01E8               	clrf	(??_main^(0+128)+3)
  1479  0268  0868               	movf	(??_main+3)^(0+128),w
  1480  0269  00F8               	movwf	___xxtofl@val+3
  1481  026A  0867               	movf	(??_main+2)^(0+128),w
  1482  026B  00F7               	movwf	___xxtofl@val+2
  1483  026C  0866               	movf	(??_main+1)^(0+128),w
  1484  026D  00F6               	movwf	___xxtofl@val+1
  1485  026E  0865               	movf	??_main^(0+128),w
  1486  026F  00F5               	movwf	___xxtofl@val
  1487  0270  3000               	movlw	0
  1488  0271  3186  269F  3180   	fcall	___xxtofl
  1489  0274  0878               	movf	?___xxtofl+3,w
  1490  0275  0021               	movlb	1	; select bank1
  1491  0276  00C8               	movwf	(_adc+3)^(0+128)
  1492  0277  0877               	movf	?___xxtofl+2,w
  1493  0278  00C7               	movwf	(_adc+2)^(0+128)
  1494  0279  0876               	movf	?___xxtofl+1,w
  1495  027A  00C6               	movwf	(_adc+1)^(0+128)
  1496  027B  0875               	movf	?___xxtofl,w
  1497  027C  00C5               	movwf	_adc^(0+128)
  1498                           
  1499                           ;main.c: 237: adc = ((adc * 3.3F) / 1024.0F) - 1.65F;
  1500  027D  30BF               	movlw	191
  1501  027E  0020               	movlb	0	; select bank0
  1502  027F  00E1               	movwf	___fladd@b+3
  1503  0280  30D3               	movlw	211
  1504  0281  00E0               	movwf	___fladd@b+2
  1505  0282  3033               	movlw	51
  1506  0283  00DF               	movwf	___fladd@b+1
  1507  0284  3033               	movlw	51
  1508  0285  00DE               	movwf	___fladd@b
  1509  0286  3044               	movlw	68
  1510  0287  00C7               	movwf	___fldiv@a+3
  1511  0288  3080               	movlw	128
  1512  0289  00C6               	movwf	___fldiv@a+2
  1513  028A  3000               	movlw	0
  1514  028B  00C5               	movwf	___fldiv@a+1
  1515  028C  3000               	movlw	0
  1516  028D  00C4               	movwf	___fldiv@a
  1517  028E  3040               	movlw	64
  1518  028F  00AD               	movwf	___flmul@b+3
  1519  0290  3053               	movlw	83
  1520  0291  00AC               	movwf	___flmul@b+2
  1521  0292  3033               	movlw	51
  1522  0293  00AB               	movwf	___flmul@b+1
  1523  0294  3033               	movlw	51
  1524  0295  00AA               	movwf	___flmul@b
  1525  0296  0021               	movlb	1	; select bank1
  1526  0297  0848               	movf	(_adc+3)^(0+128),w
  1527  0298  0020               	movlb	0	; select bank0
  1528  0299  00B1               	movwf	___flmul@a+3
  1529  029A  0021               	movlb	1	; select bank1
  1530  029B  0847               	movf	(_adc+2)^(0+128),w
  1531  029C  0020               	movlb	0	; select bank0
  1532  029D  00B0               	movwf	___flmul@a+2
  1533  029E  0021               	movlb	1	; select bank1
  1534  029F  0846               	movf	(_adc+1)^(0+128),w
  1535  02A0  0020               	movlb	0	; select bank0
  1536  02A1  00AF               	movwf	___flmul@a+1
  1537  02A2  0021               	movlb	1	; select bank1
  1538  02A3  0845               	movf	_adc^(0+128),w
  1539  02A4  0020               	movlb	0	; select bank0
  1540  02A5  00AE               	movwf	___flmul@a
  1541  02A6  318D  25E8  3180   	fcall	___flmul
  1542  02A9  082D               	movf	?___flmul+3,w
  1543  02AA  00CB               	movwf	___fldiv@b+3
  1544  02AB  082C               	movf	?___flmul+2,w
  1545  02AC  00CA               	movwf	___fldiv@b+2
  1546  02AD  082B               	movf	?___flmul+1,w
  1547  02AE  00C9               	movwf	___fldiv@b+1
  1548  02AF  082A               	movf	?___flmul,w
  1549  02B0  00C8               	movwf	___fldiv@b
  1550  02B1  318A  2272  3180   	fcall	___fldiv
  1551  02B4  0847               	movf	?___fldiv+3,w
  1552  02B5  00E5               	movwf	___fladd@a+3
  1553  02B6  0846               	movf	?___fldiv+2,w
  1554  02B7  00E4               	movwf	___fladd@a+2
  1555  02B8  0845               	movf	?___fldiv+1,w
  1556  02B9  00E3               	movwf	___fladd@a+1
  1557  02BA  0844               	movf	?___fldiv,w
  1558  02BB  00E2               	movwf	___fladd@a
  1559  02BC  3184  245A  3180   	fcall	___fladd
  1560  02BF  0020               	movlb	0	; select bank0
  1561  02C0  0861               	movf	?___fladd+3,w
  1562  02C1  0021               	movlb	1	; select bank1
  1563  02C2  00C8               	movwf	(_adc+3)^(0+128)
  1564  02C3  0020               	movlb	0	; select bank0
  1565  02C4  0860               	movf	?___fladd+2,w
  1566  02C5  0021               	movlb	1	; select bank1
  1567  02C6  00C7               	movwf	(_adc+2)^(0+128)
  1568  02C7  0020               	movlb	0	; select bank0
  1569  02C8  085F               	movf	?___fladd+1,w
  1570  02C9  0021               	movlb	1	; select bank1
  1571  02CA  00C6               	movwf	(_adc+1)^(0+128)
  1572  02CB  0020               	movlb	0	; select bank0
  1573  02CC  085E               	movf	?___fladd,w
  1574  02CD  0021               	movlb	1	; select bank1
  1575  02CE  00C5               	movwf	_adc^(0+128)
  1576                           
  1577                           ;main.c: 238: adc = adc * I2C_buffer.data.trRatio;
  1578  02CF  0848               	movf	(_adc+3)^(0+128),w
  1579  02D0  0020               	movlb	0	; select bank0
  1580  02D1  00AD               	movwf	___flmul@b+3
  1581  02D2  0021               	movlb	1	; select bank1
  1582  02D3  0847               	movf	(_adc+2)^(0+128),w
  1583  02D4  0020               	movlb	0	; select bank0
  1584  02D5  00AC               	movwf	___flmul@b+2
  1585  02D6  0021               	movlb	1	; select bank1
  1586  02D7  0846               	movf	(_adc+1)^(0+128),w
  1587  02D8  0020               	movlb	0	; select bank0
  1588  02D9  00AB               	movwf	___flmul@b+1
  1589  02DA  0021               	movlb	1	; select bank1
  1590  02DB  0845               	movf	_adc^(0+128),w
  1591  02DC  0020               	movlb	0	; select bank0
  1592  02DD  00AA               	movwf	___flmul@b
  1593  02DE  3007               	movlw	7
  1594  02DF  3EA0               	addlw	(low (_I2C_buffer| 0))& (0+255)
  1595  02E0  0086               	movwf	6
  1596  02E1  0187               	clrf	7
  1597  02E2  3F40               	moviw [0]fsr1
  1598  02E3  00AE               	movwf	___flmul@a
  1599  02E4  3F41               	moviw [1]fsr1
  1600  02E5  00AF               	movwf	___flmul@a+1
  1601  02E6  3F42               	moviw [2]fsr1
  1602  02E7  00B0               	movwf	___flmul@a+2
  1603  02E8  3F43               	moviw [3]fsr1
  1604  02E9  00B1               	movwf	___flmul@a+3
  1605  02EA  318D  25E8  3180   	fcall	___flmul
  1606  02ED  082D               	movf	?___flmul+3,w
  1607  02EE  0021               	movlb	1	; select bank1
  1608  02EF  00C8               	movwf	(_adc+3)^(0+128)
  1609  02F0  0020               	movlb	0	; select bank0
  1610  02F1  082C               	movf	?___flmul+2,w
  1611  02F2  0021               	movlb	1	; select bank1
  1612  02F3  00C7               	movwf	(_adc+2)^(0+128)
  1613  02F4  0020               	movlb	0	; select bank0
  1614  02F5  082B               	movf	?___flmul+1,w
  1615  02F6  0021               	movlb	1	; select bank1
  1616  02F7  00C6               	movwf	(_adc+1)^(0+128)
  1617  02F8  0020               	movlb	0	; select bank0
  1618  02F9  082A               	movf	?___flmul,w
  1619  02FA  0021               	movlb	1	; select bank1
  1620  02FB  00C5               	movwf	_adc^(0+128)
  1621                           
  1622                           ;main.c: 239: vacc += adc*adc;
  1623  02FC  0848               	movf	(_adc+3)^(0+128),w
  1624  02FD  0020               	movlb	0	; select bank0
  1625  02FE  00B1               	movwf	___flmul@a+3
  1626  02FF  0021               	movlb	1	; select bank1
  1627  0300  0847               	movf	(_adc+2)^(0+128),w
  1628  0301  0020               	movlb	0	; select bank0
  1629  0302  00B0               	movwf	___flmul@a+2
  1630  0303  0021               	movlb	1	; select bank1
  1631  0304  0846               	movf	(_adc+1)^(0+128),w
  1632  0305  0020               	movlb	0	; select bank0
  1633  0306  00AF               	movwf	___flmul@a+1
  1634  0307  0021               	movlb	1	; select bank1
  1635  0308  0845               	movf	_adc^(0+128),w
  1636  0309  0020               	movlb	0	; select bank0
  1637  030A  00AE               	movwf	___flmul@a
  1638  030B  0021               	movlb	1	; select bank1
  1639  030C  0848               	movf	(_adc+3)^(0+128),w
  1640  030D  0020               	movlb	0	; select bank0
  1641  030E  00AD               	movwf	___flmul@b+3
  1642  030F  0021               	movlb	1	; select bank1
  1643  0310  0847               	movf	(_adc+2)^(0+128),w
  1644  0311  0020               	movlb	0	; select bank0
  1645  0312  00AC               	movwf	___flmul@b+2
  1646  0313  0021               	movlb	1	; select bank1
  1647  0314  0846               	movf	(_adc+1)^(0+128),w
  1648  0315  0020               	movlb	0	; select bank0
  1649  0316  00AB               	movwf	___flmul@b+1
  1650  0317  0021               	movlb	1	; select bank1
  1651  0318  0845               	movf	_adc^(0+128),w
  1652  0319  0020               	movlb	0	; select bank0
  1653  031A  00AA               	movwf	___flmul@b
  1654  031B  318D  25E8  3180   	fcall	___flmul
  1655  031E  082D               	movf	?___flmul+3,w
  1656  031F  00E1               	movwf	___fladd@b+3
  1657  0320  082C               	movf	?___flmul+2,w
  1658  0321  00E0               	movwf	___fladd@b+2
  1659  0322  082B               	movf	?___flmul+1,w
  1660  0323  00DF               	movwf	___fladd@b+1
  1661  0324  082A               	movf	?___flmul,w
  1662  0325  00DE               	movwf	___fladd@b
  1663  0326  0021               	movlb	1	; select bank1
  1664  0327  0840               	movf	(_vacc+3)^(0+128),w
  1665  0328  0020               	movlb	0	; select bank0
  1666  0329  00E5               	movwf	___fladd@a+3
  1667  032A  0021               	movlb	1	; select bank1
  1668  032B  083F               	movf	(_vacc+2)^(0+128),w
  1669  032C  0020               	movlb	0	; select bank0
  1670  032D  00E4               	movwf	___fladd@a+2
  1671  032E  0021               	movlb	1	; select bank1
  1672  032F  083E               	movf	(_vacc+1)^(0+128),w
  1673  0330  0020               	movlb	0	; select bank0
  1674  0331  00E3               	movwf	___fladd@a+1
  1675  0332  0021               	movlb	1	; select bank1
  1676  0333  083D               	movf	_vacc^(0+128),w
  1677  0334  0020               	movlb	0	; select bank0
  1678  0335  00E2               	movwf	___fladd@a
  1679  0336  3184  245A  3180   	fcall	___fladd
  1680  0339  0020               	movlb	0	; select bank0
  1681  033A  0861               	movf	?___fladd+3,w
  1682  033B  0021               	movlb	1	; select bank1
  1683  033C  00C0               	movwf	(_vacc+3)^(0+128)
  1684  033D  0020               	movlb	0	; select bank0
  1685  033E  0860               	movf	?___fladd+2,w
  1686  033F  0021               	movlb	1	; select bank1
  1687  0340  00BF               	movwf	(_vacc+2)^(0+128)
  1688  0341  0020               	movlb	0	; select bank0
  1689  0342  085F               	movf	?___fladd+1,w
  1690  0343  0021               	movlb	1	; select bank1
  1691  0344  00BE               	movwf	(_vacc+1)^(0+128)
  1692  0345  0020               	movlb	0	; select bank0
  1693  0346  085E               	movf	?___fladd,w
  1694  0347  0021               	movlb	1	; select bank1
  1695  0348  00BD               	movwf	_vacc^(0+128)
  1696  0349  3001               	movlw	1
  1697  034A  07FA               	addwf	main@i,f
  1698  034B  3000               	movlw	0
  1699  034C  3DFB               	addwfc	main@i+1,f
  1700  034D  293B               	goto	l3259
  1701  034E                     l3261:	
  1702                           
  1703                           ;main.c: 240: };main.c: 242: I2C_buffer.data.Irms = sqrt((iacc / (float)I2C_buffer.data.
      +                          samples)) * 2.0F;
  1704  034E  3040               	movlw	64
  1705  034F  0020               	movlb	0	; select bank0
  1706  0350  00AD               	movwf	___flmul@b+3
  1707  0351  3000               	movlw	0
  1708  0352  00AC               	movwf	___flmul@b+2
  1709  0353  3000               	movlw	0
  1710  0354  00AB               	movwf	___flmul@b+1
  1711  0355  3000               	movlw	0
  1712  0356  00AA               	movwf	___flmul@b
  1713  0357  0021               	movlb	1	; select bank1
  1714  0358  082B               	movf	(_I2C_buffer^(0+128)+11),w	;volatile
  1715  0359  00F5               	movwf	___xxtofl@val
  1716  035A  082C               	movf	((_I2C_buffer+1)^(0+128)+11),w	;volatile
  1717  035B  00F6               	movwf	___xxtofl@val+1
  1718  035C  0D89               	rlf	9,f
  1719  035D  3B89               	subwfb	9,f
  1720  035E  0989               	comf	9,f
  1721  035F  00F7               	movwf	___xxtofl@val+2
  1722  0360  00F8               	movwf	___xxtofl@val+3
  1723  0361  3001               	movlw	1
  1724  0362  3186  269F  3180   	fcall	___xxtofl
  1725  0365  0878               	movf	?___xxtofl+3,w
  1726  0366  00C7               	movwf	___fldiv@a+3
  1727  0367  0877               	movf	?___xxtofl+2,w
  1728  0368  00C6               	movwf	___fldiv@a+2
  1729  0369  0876               	movf	?___xxtofl+1,w
  1730  036A  00C5               	movwf	___fldiv@a+1
  1731  036B  0875               	movf	?___xxtofl,w
  1732  036C  00C4               	movwf	___fldiv@a
  1733  036D  0021               	movlb	1	; select bank1
  1734  036E  0844               	movf	(_iacc+3)^(0+128),w
  1735  036F  0020               	movlb	0	; select bank0
  1736  0370  00CB               	movwf	___fldiv@b+3
  1737  0371  0021               	movlb	1	; select bank1
  1738  0372  0843               	movf	(_iacc+2)^(0+128),w
  1739  0373  0020               	movlb	0	; select bank0
  1740  0374  00CA               	movwf	___fldiv@b+2
  1741  0375  0021               	movlb	1	; select bank1
  1742  0376  0842               	movf	(_iacc+1)^(0+128),w
  1743  0377  0020               	movlb	0	; select bank0
  1744  0378  00C9               	movwf	___fldiv@b+1
  1745  0379  0021               	movlb	1	; select bank1
  1746  037A  0841               	movf	_iacc^(0+128),w
  1747  037B  0020               	movlb	0	; select bank0
  1748  037C  00C8               	movwf	___fldiv@b
  1749  037D  318A  2272  3180   	fcall	___fldiv
  1750  0380  0847               	movf	?___fldiv+3,w
  1751  0381  00E1               	movwf	sqrt@a+3
  1752  0382  0846               	movf	?___fldiv+2,w
  1753  0383  00E0               	movwf	sqrt@a+2
  1754  0384  0845               	movf	?___fldiv+1,w
  1755  0385  00DF               	movwf	sqrt@a+1
  1756  0386  0844               	movf	?___fldiv,w
  1757  0387  00DE               	movwf	sqrt@a
  1758  0388  318B  23EB  3180   	fcall	_sqrt
  1759  038B  0861               	movf	?_sqrt+3,w
  1760  038C  00B1               	movwf	___flmul@a+3
  1761  038D  0860               	movf	?_sqrt+2,w
  1762  038E  00B0               	movwf	___flmul@a+2
  1763  038F  085F               	movf	?_sqrt+1,w
  1764  0390  00AF               	movwf	___flmul@a+1
  1765  0391  085E               	movf	?_sqrt,w
  1766  0392  00AE               	movwf	___flmul@a
  1767  0393  318D  25E8  3180   	fcall	___flmul
  1768  0396  082D               	movf	?___flmul+3,w
  1769  0397  0021               	movlb	1	; select bank1
  1770  0398  00B0               	movwf	((_I2C_buffer+3)^(0+128)+13)	;volatile
  1771  0399  0020               	movlb	0	; select bank0
  1772  039A  082C               	movf	?___flmul+2,w
  1773  039B  0021               	movlb	1	; select bank1
  1774  039C  00AF               	movwf	((_I2C_buffer+2)^(0+128)+13)	;volatile
  1775  039D  0020               	movlb	0	; select bank0
  1776  039E  082B               	movf	?___flmul+1,w
  1777  039F  0021               	movlb	1	; select bank1
  1778  03A0  00AE               	movwf	((_I2C_buffer+1)^(0+128)+13)	;volatile
  1779  03A1  0020               	movlb	0	; select bank0
  1780  03A2  082A               	movf	?___flmul,w
  1781  03A3  0021               	movlb	1	; select bank1
  1782  03A4  00AD               	movwf	(_I2C_buffer^(0+128)+13)	;volatile
  1783                           
  1784                           ;main.c: 243: I2C_buffer.data.Vrms = sqrt((vacc / (float)I2C_buffer.data.samples));
  1785  03A5  082B               	movf	(_I2C_buffer^(0+128)+11),w	;volatile
  1786  03A6  00F5               	movwf	___xxtofl@val
  1787  03A7  082C               	movf	((_I2C_buffer+1)^(0+128)+11),w	;volatile
  1788  03A8  00F6               	movwf	___xxtofl@val+1
  1789  03A9  0D89               	rlf	9,f
  1790  03AA  3B89               	subwfb	9,f
  1791  03AB  0989               	comf	9,f
  1792  03AC  00F7               	movwf	___xxtofl@val+2
  1793  03AD  00F8               	movwf	___xxtofl@val+3
  1794  03AE  3001               	movlw	1
  1795  03AF  3186  269F  3180   	fcall	___xxtofl
  1796  03B2  0878               	movf	?___xxtofl+3,w
  1797  03B3  00C7               	movwf	___fldiv@a+3
  1798  03B4  0877               	movf	?___xxtofl+2,w
  1799  03B5  00C6               	movwf	___fldiv@a+2
  1800  03B6  0876               	movf	?___xxtofl+1,w
  1801  03B7  00C5               	movwf	___fldiv@a+1
  1802  03B8  0875               	movf	?___xxtofl,w
  1803  03B9  00C4               	movwf	___fldiv@a
  1804  03BA  0021               	movlb	1	; select bank1
  1805  03BB  0840               	movf	(_vacc+3)^(0+128),w
  1806  03BC  0020               	movlb	0	; select bank0
  1807  03BD  00CB               	movwf	___fldiv@b+3
  1808  03BE  0021               	movlb	1	; select bank1
  1809  03BF  083F               	movf	(_vacc+2)^(0+128),w
  1810  03C0  0020               	movlb	0	; select bank0
  1811  03C1  00CA               	movwf	___fldiv@b+2
  1812  03C2  0021               	movlb	1	; select bank1
  1813  03C3  083E               	movf	(_vacc+1)^(0+128),w
  1814  03C4  0020               	movlb	0	; select bank0
  1815  03C5  00C9               	movwf	___fldiv@b+1
  1816  03C6  0021               	movlb	1	; select bank1
  1817  03C7  083D               	movf	_vacc^(0+128),w
  1818  03C8  0020               	movlb	0	; select bank0
  1819  03C9  00C8               	movwf	___fldiv@b
  1820  03CA  318A  2272  3180   	fcall	___fldiv
  1821  03CD  0847               	movf	?___fldiv+3,w
  1822  03CE  00E1               	movwf	sqrt@a+3
  1823  03CF  0846               	movf	?___fldiv+2,w
  1824  03D0  00E0               	movwf	sqrt@a+2
  1825  03D1  0845               	movf	?___fldiv+1,w
  1826  03D2  00DF               	movwf	sqrt@a+1
  1827  03D3  0844               	movf	?___fldiv,w
  1828  03D4  00DE               	movwf	sqrt@a
  1829  03D5  318B  23EB  3180   	fcall	_sqrt
  1830  03D8  0861               	movf	?_sqrt+3,w
  1831  03D9  0021               	movlb	1	; select bank1
  1832  03DA  00B4               	movwf	((_I2C_buffer+3)^(0+128)+17)	;volatile
  1833  03DB  0020               	movlb	0	; select bank0
  1834  03DC  0860               	movf	?_sqrt+2,w
  1835  03DD  0021               	movlb	1	; select bank1
  1836  03DE  00B3               	movwf	((_I2C_buffer+2)^(0+128)+17)	;volatile
  1837  03DF  0020               	movlb	0	; select bank0
  1838  03E0  085F               	movf	?_sqrt+1,w
  1839  03E1  0021               	movlb	1	; select bank1
  1840  03E2  00B2               	movwf	((_I2C_buffer+1)^(0+128)+17)	;volatile
  1841  03E3  0020               	movlb	0	; select bank0
  1842  03E4  085E               	movf	?_sqrt,w
  1843  03E5  0021               	movlb	1	; select bank1
  1844  03E6  00B1               	movwf	(_I2C_buffer^(0+128)+17)	;volatile
  1845                           
  1846                           ;main.c: 244: I2C_buffer.data.Power = I2C_buffer.data.Vrms * I2C_buffer.data.Irms;
  1847  03E7  300D               	movlw	13
  1848  03E8  3EA0               	addlw	(low (_I2C_buffer| 0))& (0+255)
  1849  03E9  0086               	movwf	6
  1850  03EA  0187               	clrf	7
  1851  03EB  3F40               	moviw [0]fsr1
  1852  03EC  0020               	movlb	0	; select bank0
  1853  03ED  00AA               	movwf	___flmul@b
  1854  03EE  3F41               	moviw [1]fsr1
  1855  03EF  00AB               	movwf	___flmul@b+1
  1856  03F0  3F42               	moviw [2]fsr1
  1857  03F1  00AC               	movwf	___flmul@b+2
  1858  03F2  3F43               	moviw [3]fsr1
  1859  03F3  00AD               	movwf	___flmul@b+3
  1860  03F4  3011               	movlw	17
  1861  03F5  3EA0               	addlw	(low (_I2C_buffer| 0))& (0+255)
  1862  03F6  0086               	movwf	6
  1863  03F7  0187               	clrf	7
  1864  03F8  3F40               	moviw [0]fsr1
  1865  03F9  00AE               	movwf	___flmul@a
  1866  03FA  3F41               	moviw [1]fsr1
  1867  03FB  00AF               	movwf	___flmul@a+1
  1868  03FC  3F42               	moviw [2]fsr1
  1869  03FD  00B0               	movwf	___flmul@a+2
  1870  03FE  3F43               	moviw [3]fsr1
  1871  03FF  00B1               	movwf	___flmul@a+3
  1872  0400  318D  25E8  3180   	fcall	___flmul
  1873  0403  082D               	movf	?___flmul+3,w
  1874  0404  0021               	movlb	1	; select bank1
  1875  0405  00B8               	movwf	((_I2C_buffer+3)^(0+128)+21)	;volatile
  1876  0406  0020               	movlb	0	; select bank0
  1877  0407  082C               	movf	?___flmul+2,w
  1878  0408  0021               	movlb	1	; select bank1
  1879  0409  00B7               	movwf	((_I2C_buffer+2)^(0+128)+21)	;volatile
  1880  040A  0020               	movlb	0	; select bank0
  1881  040B  082B               	movf	?___flmul+1,w
  1882  040C  0021               	movlb	1	; select bank1
  1883  040D  00B6               	movwf	((_I2C_buffer+1)^(0+128)+21)	;volatile
  1884  040E  0020               	movlb	0	; select bank0
  1885  040F  082A               	movf	?___flmul,w
  1886  0410  0021               	movlb	1	; select bank1
  1887  0411  00B5               	movwf	(_I2C_buffer^(0+128)+21)	;volatile
  1888                           
  1889                           ;main.c: 245: I2C_buffer.data.AvPower = (I2C_buffer.data.Power + I2C_buffer.data.AvPower
      +                          ) / 2.0F;
  1890  0412  3040               	movlw	64
  1891  0413  0020               	movlb	0	; select bank0
  1892  0414  00C7               	movwf	___fldiv@a+3
  1893  0415  3000               	movlw	0
  1894  0416  00C6               	movwf	___fldiv@a+2
  1895  0417  3000               	movlw	0
  1896  0418  00C5               	movwf	___fldiv@a+1
  1897  0419  3000               	movlw	0
  1898  041A  00C4               	movwf	___fldiv@a
  1899  041B  3019               	movlw	25
  1900  041C  3EA0               	addlw	(low (_I2C_buffer| 0))& (0+255)
  1901  041D  0086               	movwf	6
  1902  041E  0187               	clrf	7
  1903  041F  3F40               	moviw [0]fsr1
  1904  0420  00DE               	movwf	___fladd@b
  1905  0421  3F41               	moviw [1]fsr1
  1906  0422  00DF               	movwf	___fladd@b+1
  1907  0423  3F42               	moviw [2]fsr1
  1908  0424  00E0               	movwf	___fladd@b+2
  1909  0425  3F43               	moviw [3]fsr1
  1910  0426  00E1               	movwf	___fladd@b+3
  1911  0427  3015               	movlw	21
  1912  0428  3EA0               	addlw	(low (_I2C_buffer| 0))& (0+255)
  1913  0429  0086               	movwf	6
  1914  042A  0187               	clrf	7
  1915  042B  3F40               	moviw [0]fsr1
  1916  042C  00E2               	movwf	___fladd@a
  1917  042D  3F41               	moviw [1]fsr1
  1918  042E  00E3               	movwf	___fladd@a+1
  1919  042F  3F42               	moviw [2]fsr1
  1920  0430  00E4               	movwf	___fladd@a+2
  1921  0431  3F43               	moviw [3]fsr1
  1922  0432  00E5               	movwf	___fladd@a+3
  1923  0433  3184  245A  3180   	fcall	___fladd
  1924  0436  0020               	movlb	0	; select bank0
  1925  0437  0861               	movf	?___fladd+3,w
  1926  0438  00CB               	movwf	___fldiv@b+3
  1927  0439  0860               	movf	?___fladd+2,w
  1928  043A  00CA               	movwf	___fldiv@b+2
  1929  043B  085F               	movf	?___fladd+1,w
  1930  043C  00C9               	movwf	___fldiv@b+1
  1931  043D  085E               	movf	?___fladd,w
  1932  043E  00C8               	movwf	___fldiv@b
  1933  043F  318A  2272  3180   	fcall	___fldiv
  1934  0442  0847               	movf	?___fldiv+3,w
  1935  0443  0021               	movlb	1	; select bank1
  1936  0444  00BC               	movwf	((_I2C_buffer+3)^(0+128)+25)	;volatile
  1937  0445  0020               	movlb	0	; select bank0
  1938  0446  0846               	movf	?___fldiv+2,w
  1939  0447  0021               	movlb	1	; select bank1
  1940  0448  00BB               	movwf	((_I2C_buffer+2)^(0+128)+25)	;volatile
  1941  0449  0020               	movlb	0	; select bank0
  1942  044A  0845               	movf	?___fldiv+1,w
  1943  044B  0021               	movlb	1	; select bank1
  1944  044C  00BA               	movwf	((_I2C_buffer+1)^(0+128)+25)	;volatile
  1945  044D  0020               	movlb	0	; select bank0
  1946  044E  0844               	movf	?___fldiv,w
  1947  044F  0021               	movlb	1	; select bank1
  1948  0450  00B9               	movwf	(_I2C_buffer^(0+128)+25)	;volatile
  1949                           
  1950                           ;main.c: 246: LATAbits.LATA5 = (char)!LATAbits.LATA5;
  1951  0451  1003               	clrc
  1952  0452  0022               	movlb	2	; select bank2
  1953  0453  1E8C               	btfss	12,5	;volatile
  1954  0454  1403               	setc
  1955  0455  1803               	btfsc	3,0
  1956  0456  28B9               	goto	L1
  1957  0457  0022               	movlb	2	; select bank2
  1958  0458  128C               	bcf	12,5	;volatile
  1959  0459  28BB               	goto	l106
  1960  045A                     __end_of_main:	
  1961                           
  1962                           	psect	text1
  1963  0BEB                     __ptext1:	
  1964 ;; *************** function _sqrt *****************
  1965 ;; Defined at:
  1966 ;;		line 9 in file "C:\Program Files (x86)\Microchip\xc8\v2.10\pic\sources\c90\common\sprcsqrt.c"
  1967 ;; Parameters:    Size  Location     Type
  1968 ;;  a               4   62[BANK0 ] int 
  1969 ;; Auto vars:     Size  Location     Type
  1970 ;;  frac            4   17[BANK1 ] unsigned long 
  1971 ;;  root            4   13[BANK1 ] struct .
  1972 ;;  grs             4    7[BANK1 ] unsigned long 
  1973 ;;  tfrac           4    2[BANK1 ] unsigned long 
  1974 ;;  exp             2   11[BANK1 ] int 
  1975 ;;  p               1    6[BANK1 ] unsigned char 
  1976 ;;  i               1    1[BANK1 ] unsigned char 
  1977 ;;  sign            1    0[BANK1 ] unsigned char 
  1978 ;; Return value:  Size  Location     Type
  1979 ;;                  4   62[BANK0 ] unsigned char 
  1980 ;; Registers used:
  1981 ;;		wreg, status,2, status,0
  1982 ;; Tracked objects:
  1983 ;;		On entry : 1F/0
  1984 ;;		On exit  : 1F/0
  1985 ;;		Unchanged: 0/0
  1986 ;; Data sizes:     COMMON   BANK0   BANK1   BANK2
  1987 ;;      Params:         0       4       0       0
  1988 ;;      Locals:         0       0      21       0
  1989 ;;      Temps:          0       4       0       0
  1990 ;;      Totals:         0       8      21       0
  1991 ;;Total ram usage:       29 bytes
  1992 ;; Hardware stack levels used:    1
  1993 ;; Hardware stack levels required when called:    1
  1994 ;; This function calls:
  1995 ;;		Nothing
  1996 ;; This function is called by:
  1997 ;;		_main
  1998 ;; This function uses a non-reentrant model
  1999 ;;
  2000                           
  2001                           
  2002                           ;psect for function _sqrt
  2003  0BEB                     _sqrt:	
  2004                           
  2005                           ;incstack = 0
  2006                           ; Regs used in _sqrt: [wreg+status,2+status,0]
  2007  0BEB  0861               	movf	sqrt@a+3,w
  2008  0BEC  3980               	andlw	128
  2009  0BED  00E2               	movwf	??_sqrt
  2010  0BEE  0862               	movf	??_sqrt,w
  2011  0BEF  0021               	movlb	1	; select bank1
  2012  0BF0  00CC               	movwf	sqrt@sign^(0+128)
  2013  0BF1  0020               	movlb	0	; select bank0
  2014  0BF2  3561               	lslf	sqrt@a+3,w
  2015  0BF3  00E2               	movwf	??_sqrt
  2016  0BF4  0862               	movf	??_sqrt,w
  2017  0BF5  0021               	movlb	1	; select bank1
  2018  0BF6  00D2               	movwf	sqrt@p^(0+128)
  2019  0BF7  0020               	movlb	0	; select bank0
  2020  0BF8  1FE0               	btfss	sqrt@a+2,7
  2021  0BF9  2BFC               	goto	l2587
  2022  0BFA  0021               	movlb	1	; select bank1
  2023  0BFB  1452               	bsf	sqrt@p^(0+128),0
  2024  0BFC                     l2587:	
  2025  0BFC  0021               	movlb	1	; select bank1
  2026  0BFD  0852               	movf	sqrt@p^(0+128),w
  2027  0BFE  0020               	movlb	0	; select bank0
  2028  0BFF  00E2               	movwf	??_sqrt
  2029  0C00  01E3               	clrf	??_sqrt+1
  2030  0C01  0862               	movf	??_sqrt,w
  2031  0C02  0021               	movlb	1	; select bank1
  2032  0C03  00D7               	movwf	sqrt@exp^(0+128)
  2033  0C04  0020               	movlb	0	; select bank0
  2034  0C05  0863               	movf	??_sqrt+1,w
  2035  0C06  0021               	movlb	1	; select bank1
  2036  0C07  00D8               	movwf	(sqrt@exp+1)^(0+128)
  2037  0C08  30FF               	movlw	255
  2038  0C09  0020               	movlb	0	; select bank0
  2039  0C0A  055E               	andwf	sqrt@a,w
  2040  0C0B  0021               	movlb	1	; select bank1
  2041  0C0C  00DD               	movwf	sqrt@frac^(0+128)
  2042  0C0D  30FF               	movlw	255
  2043  0C0E  0020               	movlb	0	; select bank0
  2044  0C0F  055F               	andwf	sqrt@a+1,w
  2045  0C10  0021               	movlb	1	; select bank1
  2046  0C11  00DE               	movwf	(sqrt@frac+1)^(0+128)
  2047  0C12  307F               	movlw	127
  2048  0C13  0020               	movlb	0	; select bank0
  2049  0C14  0560               	andwf	sqrt@a+2,w
  2050  0C15  0021               	movlb	1	; select bank1
  2051  0C16  00DF               	movwf	(sqrt@frac+2)^(0+128)
  2052  0C17  3000               	movlw	0
  2053  0C18  0020               	movlb	0	; select bank0
  2054  0C19  0561               	andwf	sqrt@a+3,w
  2055  0C1A  0021               	movlb	1	; select bank1
  2056  0C1B  00E0               	movwf	(sqrt@frac+3)^(0+128)
  2057  0C1C  0857               	movf	sqrt@exp^(0+128),w
  2058  0C1D  0458               	iorwf	(sqrt@exp+1)^(0+128),w
  2059  0C1E  1903               	btfsc	3,2
  2060  0C1F  2C25               	goto	l2595
  2061  0C20  17DF               	bsf	(sqrt@frac^(0+128)+2),7
  2062  0C21  0A57               	incf	sqrt@exp^(0+128),w
  2063  0C22  0458               	iorwf	(sqrt@exp+1)^(0+128),w
  2064  0C23  1D03               	btfss	3,2
  2065  0C24  2C2D               	goto	l2599
  2066  0C25                     l2595:	
  2067  0C25  3000               	movlw	0
  2068  0C26  00E0               	movwf	(sqrt@frac+3)^(0+128)
  2069  0C27  3000               	movlw	0
  2070  0C28  00DF               	movwf	(sqrt@frac+2)^(0+128)
  2071  0C29  3000               	movlw	0
  2072  0C2A  00DE               	movwf	(sqrt@frac+1)^(0+128)
  2073  0C2B  3000               	movlw	0
  2074  0C2C  00DD               	movwf	sqrt@frac^(0+128)
  2075  0C2D                     l2599:	
  2076  0C2D  0857               	movf	sqrt@exp^(0+128),w
  2077  0C2E  0458               	iorwf	(sqrt@exp+1)^(0+128),w
  2078  0C2F  1D03               	btfss	3,2
  2079  0C30  2C3B               	goto	l2605
  2080  0C31  3000               	movlw	0
  2081  0C32  0020               	movlb	0	; select bank0
  2082  0C33  00E1               	movwf	?_sqrt+3
  2083  0C34  3000               	movlw	0
  2084  0C35  00E0               	movwf	?_sqrt+2
  2085  0C36  3000               	movlw	0
  2086  0C37  00DF               	movwf	?_sqrt+1
  2087  0C38  3000               	movlw	0
  2088  0C39  00DE               	movwf	?_sqrt
  2089  0C3A  0008               	return
  2090  0C3B                     l2605:	
  2091  0C3B  084C               	movf	sqrt@sign^(0+128),w
  2092  0C3C  1903               	btfsc	3,2
  2093  0C3D  2C5E               	goto	l2611
  2094  0C3E  3000               	movlw	0
  2095  0C3F  00DC               	movwf	(sqrt@root+3)^(0+128)
  2096  0C40  3040               	movlw	64
  2097  0C41  00DB               	movwf	(sqrt@root+2)^(0+128)
  2098  0C42  3000               	movlw	0
  2099  0C43  00DA               	movwf	(sqrt@root+1)^(0+128)
  2100  0C44  3000               	movlw	0
  2101  0C45  00D9               	movwf	sqrt@root^(0+128)
  2102  0C46  3080               	movlw	128
  2103  0C47  04DB               	iorwf	(sqrt@root^(0+128)+2),f
  2104  0C48  30FF               	movlw	255
  2105  0C49  04DC               	iorwf	((sqrt@root+1)^(0+128)+2),f
  2106  0C4A  3021               	movlw	33
  2107  0C4B  00C9               	movwf	_errno^(0+128)
  2108  0C4C  3000               	movlw	0
  2109  0C4D  00CA               	movwf	(_errno^(0+128)+1)
  2110  0C4E  085C               	movf	(sqrt@root+3)^(0+128),w
  2111  0C4F  0020               	movlb	0	; select bank0
  2112  0C50  00E1               	movwf	?_sqrt+3
  2113  0C51  0021               	movlb	1	; select bank1
  2114  0C52  085B               	movf	(sqrt@root+2)^(0+128),w
  2115  0C53  0020               	movlb	0	; select bank0
  2116  0C54  00E0               	movwf	?_sqrt+2
  2117  0C55  0021               	movlb	1	; select bank1
  2118  0C56  085A               	movf	(sqrt@root+1)^(0+128),w
  2119  0C57  0020               	movlb	0	; select bank0
  2120  0C58  00DF               	movwf	?_sqrt+1
  2121  0C59  0021               	movlb	1	; select bank1
  2122  0C5A  0859               	movf	sqrt@root^(0+128),w
  2123  0C5B  0020               	movlb	0	; select bank0
  2124  0C5C  00DE               	movwf	?_sqrt
  2125  0C5D  0008               	return
  2126  0C5E                     l2611:	
  2127  0C5E  0A57               	incf	sqrt@exp^(0+128),w
  2128  0C5F  0458               	iorwf	(sqrt@exp+1)^(0+128),w
  2129  0C60  1D03               	btfss	3,2
  2130  0C61  2C7A               	goto	l2617
  2131  0C62  307F               	movlw	127
  2132  0C63  00DC               	movwf	(sqrt@root+3)^(0+128)
  2133  0C64  3080               	movlw	128
  2134  0C65  00DB               	movwf	(sqrt@root+2)^(0+128)
  2135  0C66  3000               	movlw	0
  2136  0C67  00DA               	movwf	(sqrt@root+1)^(0+128)
  2137  0C68  3000               	movlw	0
  2138  0C69  00D9               	movwf	sqrt@root^(0+128)
  2139  0C6A  085C               	movf	(sqrt@root+3)^(0+128),w
  2140  0C6B  0020               	movlb	0	; select bank0
  2141  0C6C  00E1               	movwf	?_sqrt+3
  2142  0C6D  0021               	movlb	1	; select bank1
  2143  0C6E  085B               	movf	(sqrt@root+2)^(0+128),w
  2144  0C6F  0020               	movlb	0	; select bank0
  2145  0C70  00E0               	movwf	?_sqrt+2
  2146  0C71  0021               	movlb	1	; select bank1
  2147  0C72  085A               	movf	(sqrt@root+1)^(0+128),w
  2148  0C73  0020               	movlb	0	; select bank0
  2149  0C74  00DF               	movwf	?_sqrt+1
  2150  0C75  0021               	movlb	1	; select bank1
  2151  0C76  0859               	movf	sqrt@root^(0+128),w
  2152  0C77  0020               	movlb	0	; select bank0
  2153  0C78  00DE               	movwf	?_sqrt
  2154  0C79  0008               	return
  2155  0C7A                     l2617:	
  2156  0C7A  3081               	movlw	129
  2157  0C7B  07D7               	addwf	sqrt@exp^(0+128),f
  2158  0C7C  30FF               	movlw	255
  2159  0C7D  3DD8               	addwfc	(sqrt@exp+1)^(0+128),f
  2160  0C7E  0857               	movf	sqrt@exp^(0+128),w
  2161  0C7F  3901               	andlw	1
  2162  0C80  0020               	movlb	0	; select bank0
  2163  0C81  00E2               	movwf	??_sqrt
  2164  0C82  0862               	movf	??_sqrt,w
  2165  0C83  0021               	movlb	1	; select bank1
  2166  0C84  00D2               	movwf	sqrt@p^(0+128)
  2167  0C85  3001               	movlw	1
  2168  0C86                     u3245:	
  2169  0C86  37D8               	asrf	(sqrt@exp+1)^(0+128),f
  2170  0C87  0CD7               	rrf	sqrt@exp^(0+128),f
  2171  0C88  0B89               	decfsz	9,f
  2172  0C89  2C86               	goto	u3245
  2173  0C8A  307F               	movlw	127
  2174  0C8B  07D7               	addwf	sqrt@exp^(0+128),f
  2175  0C8C  3000               	movlw	0
  2176  0C8D  3DD8               	addwfc	(sqrt@exp+1)^(0+128),f
  2177  0C8E  355D               	lslf	sqrt@frac^(0+128),w
  2178  0C8F  00CE               	movwf	sqrt@tfrac^(0+128)
  2179  0C90  0D5E               	rlf	(sqrt@frac+1)^(0+128),w
  2180  0C91  00CF               	movwf	(sqrt@tfrac+1)^(0+128)
  2181  0C92  0D5F               	rlf	(sqrt@frac+2)^(0+128),w
  2182  0C93  00D0               	movwf	(sqrt@tfrac+2)^(0+128)
  2183  0C94  0D60               	rlf	(sqrt@frac+3)^(0+128),w
  2184  0C95  00D1               	movwf	(sqrt@tfrac+3)^(0+128)
  2185  0C96  3000               	movlw	0
  2186  0C97  00E0               	movwf	(sqrt@frac+3)^(0+128)
  2187  0C98  3000               	movlw	0
  2188  0C99  00DF               	movwf	(sqrt@frac+2)^(0+128)
  2189  0C9A  3000               	movlw	0
  2190  0C9B  00DE               	movwf	(sqrt@frac+1)^(0+128)
  2191  0C9C  3000               	movlw	0
  2192  0C9D  00DD               	movwf	sqrt@frac^(0+128)
  2193  0C9E  3001               	movlw	1
  2194  0C9F  00D6               	movwf	(sqrt@grs+3)^(0+128)
  2195  0CA0  3000               	movlw	0
  2196  0CA1  00D5               	movwf	(sqrt@grs+2)^(0+128)
  2197  0CA2  3000               	movlw	0
  2198  0CA3  00D4               	movwf	(sqrt@grs+1)^(0+128)
  2199  0CA4  3000               	movlw	0
  2200  0CA5  00D3               	movwf	sqrt@grs^(0+128)
  2201  0CA6  0852               	movf	sqrt@p^(0+128),w
  2202  0CA7  1903               	btfsc	3,2
  2203  0CA8  2CB0               	goto	l2635
  2204  0CA9  3001               	movlw	1
  2205  0CAA                     u3265:	
  2206  0CAA  35CE               	lslf	sqrt@tfrac^(0+128),f
  2207  0CAB  0DCF               	rlf	(sqrt@tfrac+1)^(0+128),f
  2208  0CAC  0DD0               	rlf	(sqrt@tfrac+2)^(0+128),f
  2209  0CAD  0DD1               	rlf	(sqrt@tfrac+3)^(0+128),f
  2210  0CAE  0B89               	decfsz	9,f
  2211  0CAF  2CAA               	goto	u3265
  2212  0CB0                     l2635:	
  2213  0CB0  01CD               	clrf	sqrt@i^(0+128)
  2214  0CB1                     l2643:	
  2215  0CB1  3019               	movlw	25
  2216  0CB2  024D               	subwf	sqrt@i^(0+128),w
  2217  0CB3  1803               	btfsc	3,0
  2218  0CB4  2D2F               	goto	l2645
  2219  0CB5  0853               	movf	sqrt@grs^(0+128),w
  2220  0CB6  04DD               	iorwf	sqrt@frac^(0+128),f
  2221  0CB7  0854               	movf	(sqrt@grs+1)^(0+128),w
  2222  0CB8  04DE               	iorwf	(sqrt@frac+1)^(0+128),f
  2223  0CB9  0855               	movf	(sqrt@grs+2)^(0+128),w
  2224  0CBA  04DF               	iorwf	(sqrt@frac+2)^(0+128),f
  2225  0CBB  0856               	movf	(sqrt@grs+3)^(0+128),w
  2226  0CBC  04E0               	iorwf	(sqrt@frac+3)^(0+128),f
  2227  0CBD  0860               	movf	(sqrt@frac+3)^(0+128),w
  2228  0CBE  0251               	subwf	(sqrt@tfrac+3)^(0+128),w
  2229  0CBF  1D03               	skipz
  2230  0CC0  2CCB               	goto	u3275
  2231  0CC1  085F               	movf	(sqrt@frac+2)^(0+128),w
  2232  0CC2  0250               	subwf	(sqrt@tfrac+2)^(0+128),w
  2233  0CC3  1D03               	skipz
  2234  0CC4  2CCB               	goto	u3275
  2235  0CC5  085E               	movf	(sqrt@frac+1)^(0+128),w
  2236  0CC6  024F               	subwf	(sqrt@tfrac+1)^(0+128),w
  2237  0CC7  1D03               	skipz
  2238  0CC8  2CCB               	goto	u3275
  2239  0CC9  085D               	movf	sqrt@frac^(0+128),w
  2240  0CCA  024E               	subwf	sqrt@tfrac^(0+128),w
  2241  0CCB                     u3275:	
  2242  0CCB  1C03               	skipc
  2243  0CCC  2CDE               	goto	l2641
  2244  0CCD  085D               	movf	sqrt@frac^(0+128),w
  2245  0CCE  02CE               	subwf	sqrt@tfrac^(0+128),f
  2246  0CCF  085E               	movf	(sqrt@frac+1)^(0+128),w
  2247  0CD0  3BCF               	subwfb	(sqrt@tfrac+1)^(0+128),f
  2248  0CD1  085F               	movf	(sqrt@frac+2)^(0+128),w
  2249  0CD2  3BD0               	subwfb	(sqrt@tfrac+2)^(0+128),f
  2250  0CD3  0860               	movf	(sqrt@frac+3)^(0+128),w
  2251  0CD4  3BD1               	subwfb	(sqrt@tfrac+3)^(0+128),f
  2252  0CD5  0853               	movf	sqrt@grs^(0+128),w
  2253  0CD6  07DD               	addwf	sqrt@frac^(0+128),f
  2254  0CD7  0854               	movf	(sqrt@grs+1)^(0+128),w
  2255  0CD8  3DDE               	addwfc	(sqrt@frac+1)^(0+128),f
  2256  0CD9  0855               	movf	(sqrt@grs+2)^(0+128),w
  2257  0CDA  3DDF               	addwfc	(sqrt@frac+2)^(0+128),f
  2258  0CDB  0856               	movf	(sqrt@grs+3)^(0+128),w
  2259  0CDC  3DE0               	addwfc	(sqrt@frac+3)^(0+128),f
  2260  0CDD  2CFC               	goto	l722
  2261  0CDE                     l2641:	
  2262  0CDE  0953               	comf	sqrt@grs^(0+128),w
  2263  0CDF  0020               	movlb	0	; select bank0
  2264  0CE0  00E2               	movwf	??_sqrt
  2265  0CE1  0021               	movlb	1	; select bank1
  2266  0CE2  0954               	comf	(sqrt@grs+1)^(0+128),w
  2267  0CE3  0020               	movlb	0	; select bank0
  2268  0CE4  00E3               	movwf	??_sqrt+1
  2269  0CE5  0021               	movlb	1	; select bank1
  2270  0CE6  0955               	comf	(sqrt@grs+2)^(0+128),w
  2271  0CE7  0020               	movlb	0	; select bank0
  2272  0CE8  00E4               	movwf	??_sqrt+2
  2273  0CE9  0021               	movlb	1	; select bank1
  2274  0CEA  0956               	comf	(sqrt@grs+3)^(0+128),w
  2275  0CEB  0020               	movlb	0	; select bank0
  2276  0CEC  00E5               	movwf	??_sqrt+3
  2277  0CED  0862               	movf	??_sqrt,w
  2278  0CEE  0021               	movlb	1	; select bank1
  2279  0CEF  05DD               	andwf	sqrt@frac^(0+128),f
  2280  0CF0  0020               	movlb	0	; select bank0
  2281  0CF1  0863               	movf	??_sqrt+1,w
  2282  0CF2  0021               	movlb	1	; select bank1
  2283  0CF3  05DE               	andwf	(sqrt@frac+1)^(0+128),f
  2284  0CF4  0020               	movlb	0	; select bank0
  2285  0CF5  0864               	movf	??_sqrt+2,w
  2286  0CF6  0021               	movlb	1	; select bank1
  2287  0CF7  05DF               	andwf	(sqrt@frac+2)^(0+128),f
  2288  0CF8  0020               	movlb	0	; select bank0
  2289  0CF9  0865               	movf	??_sqrt+3,w
  2290  0CFA  0021               	movlb	1	; select bank1
  2291  0CFB  05E0               	andwf	(sqrt@frac+3)^(0+128),f
  2292  0CFC                     l722:	
  2293  0CFC  0853               	movf	sqrt@grs^(0+128),w
  2294  0CFD  0020               	movlb	0	; select bank0
  2295  0CFE  00E2               	movwf	??_sqrt
  2296  0CFF  0021               	movlb	1	; select bank1
  2297  0D00  0854               	movf	(sqrt@grs+1)^(0+128),w
  2298  0D01  0020               	movlb	0	; select bank0
  2299  0D02  00E3               	movwf	??_sqrt+1
  2300  0D03  0021               	movlb	1	; select bank1
  2301  0D04  0855               	movf	(sqrt@grs+2)^(0+128),w
  2302  0D05  0020               	movlb	0	; select bank0
  2303  0D06  00E4               	movwf	??_sqrt+2
  2304  0D07  0021               	movlb	1	; select bank1
  2305  0D08  0856               	movf	(sqrt@grs+3)^(0+128),w
  2306  0D09  0020               	movlb	0	; select bank0
  2307  0D0A  00E5               	movwf	??_sqrt+3
  2308  0D0B  3001               	movlw	1
  2309  0D0C                     u3285:	
  2310  0D0C  36E5               	lsrf	??_sqrt+3,f
  2311  0D0D  0CE4               	rrf	??_sqrt+2,f
  2312  0D0E  0CE3               	rrf	??_sqrt+1,f
  2313  0D0F  0CE2               	rrf	??_sqrt,f
  2314  0D10  0B89               	decfsz	9,f
  2315  0D11  2D0C               	goto	u3285
  2316  0D12  0865               	movf	??_sqrt+3,w
  2317  0D13  0021               	movlb	1	; select bank1
  2318  0D14  00D6               	movwf	(sqrt@grs+3)^(0+128)
  2319  0D15  0020               	movlb	0	; select bank0
  2320  0D16  0864               	movf	??_sqrt+2,w
  2321  0D17  0021               	movlb	1	; select bank1
  2322  0D18  00D5               	movwf	(sqrt@grs+2)^(0+128)
  2323  0D19  0020               	movlb	0	; select bank0
  2324  0D1A  0863               	movf	??_sqrt+1,w
  2325  0D1B  0021               	movlb	1	; select bank1
  2326  0D1C  00D4               	movwf	(sqrt@grs+1)^(0+128)
  2327  0D1D  0020               	movlb	0	; select bank0
  2328  0D1E  0862               	movf	??_sqrt,w
  2329  0D1F  0021               	movlb	1	; select bank1
  2330  0D20  00D3               	movwf	sqrt@grs^(0+128)
  2331  0D21  3001               	movlw	1
  2332  0D22                     u3295:	
  2333  0D22  35CE               	lslf	sqrt@tfrac^(0+128),f
  2334  0D23  0DCF               	rlf	(sqrt@tfrac+1)^(0+128),f
  2335  0D24  0DD0               	rlf	(sqrt@tfrac+2)^(0+128),f
  2336  0D25  0DD1               	rlf	(sqrt@tfrac+3)^(0+128),f
  2337  0D26  0B89               	decfsz	9,f
  2338  0D27  2D22               	goto	u3295
  2339  0D28  3001               	movlw	1
  2340  0D29  0020               	movlb	0	; select bank0
  2341  0D2A  00E2               	movwf	??_sqrt
  2342  0D2B  0862               	movf	??_sqrt,w
  2343  0D2C  0021               	movlb	1	; select bank1
  2344  0D2D  07CD               	addwf	sqrt@i^(0+128),f
  2345  0D2E  2CB1               	goto	l2643
  2346  0D2F                     l2645:	
  2347  0D2F  085D               	movf	sqrt@frac^(0+128),w
  2348  0D30  0020               	movlb	0	; select bank0
  2349  0D31  00E2               	movwf	??_sqrt
  2350  0D32  0021               	movlb	1	; select bank1
  2351  0D33  085E               	movf	(sqrt@frac+1)^(0+128),w
  2352  0D34  0020               	movlb	0	; select bank0
  2353  0D35  00E3               	movwf	??_sqrt+1
  2354  0D36  0021               	movlb	1	; select bank1
  2355  0D37  085F               	movf	(sqrt@frac+2)^(0+128),w
  2356  0D38  0020               	movlb	0	; select bank0
  2357  0D39  00E4               	movwf	??_sqrt+2
  2358  0D3A  0021               	movlb	1	; select bank1
  2359  0D3B  0860               	movf	(sqrt@frac+3)^(0+128),w
  2360  0D3C  0020               	movlb	0	; select bank0
  2361  0D3D  00E5               	movwf	??_sqrt+3
  2362  0D3E  3001               	movlw	1
  2363  0D3F                     u3315:	
  2364  0D3F  36E5               	lsrf	??_sqrt+3,f
  2365  0D40  0CE4               	rrf	??_sqrt+2,f
  2366  0D41  0CE3               	rrf	??_sqrt+1,f
  2367  0D42  0CE2               	rrf	??_sqrt,f
  2368  0D43  0B89               	decfsz	9,f
  2369  0D44  2D3F               	goto	u3315
  2370  0D45  0865               	movf	??_sqrt+3,w
  2371  0D46  0021               	movlb	1	; select bank1
  2372  0D47  00E0               	movwf	(sqrt@frac+3)^(0+128)
  2373  0D48  0020               	movlb	0	; select bank0
  2374  0D49  0864               	movf	??_sqrt+2,w
  2375  0D4A  0021               	movlb	1	; select bank1
  2376  0D4B  00DF               	movwf	(sqrt@frac+2)^(0+128)
  2377  0D4C  0020               	movlb	0	; select bank0
  2378  0D4D  0863               	movf	??_sqrt+1,w
  2379  0D4E  0021               	movlb	1	; select bank1
  2380  0D4F  00DE               	movwf	(sqrt@frac+1)^(0+128)
  2381  0D50  0020               	movlb	0	; select bank0
  2382  0D51  0862               	movf	??_sqrt,w
  2383  0D52  0021               	movlb	1	; select bank1
  2384  0D53  00DD               	movwf	sqrt@frac^(0+128)
  2385  0D54  3001               	movlw	1
  2386  0D55  055D               	andwf	sqrt@frac^(0+128),w
  2387  0D56  00D3               	movwf	sqrt@grs^(0+128)
  2388  0D57  3000               	movlw	0
  2389  0D58  055E               	andwf	(sqrt@frac+1)^(0+128),w
  2390  0D59  00D4               	movwf	(sqrt@grs+1)^(0+128)
  2391  0D5A  3000               	movlw	0
  2392  0D5B  055F               	andwf	(sqrt@frac+2)^(0+128),w
  2393  0D5C  00D5               	movwf	(sqrt@grs+2)^(0+128)
  2394  0D5D  3000               	movlw	0
  2395  0D5E  0560               	andwf	(sqrt@frac+3)^(0+128),w
  2396  0D5F  00D6               	movwf	(sqrt@grs+3)^(0+128)
  2397  0D60  085D               	movf	sqrt@frac^(0+128),w
  2398  0D61  0020               	movlb	0	; select bank0
  2399  0D62  00E2               	movwf	??_sqrt
  2400  0D63  0021               	movlb	1	; select bank1
  2401  0D64  085E               	movf	(sqrt@frac+1)^(0+128),w
  2402  0D65  0020               	movlb	0	; select bank0
  2403  0D66  00E3               	movwf	??_sqrt+1
  2404  0D67  0021               	movlb	1	; select bank1
  2405  0D68  085F               	movf	(sqrt@frac+2)^(0+128),w
  2406  0D69  0020               	movlb	0	; select bank0
  2407  0D6A  00E4               	movwf	??_sqrt+2
  2408  0D6B  0021               	movlb	1	; select bank1
  2409  0D6C  0860               	movf	(sqrt@frac+3)^(0+128),w
  2410  0D6D  0020               	movlb	0	; select bank0
  2411  0D6E  00E5               	movwf	??_sqrt+3
  2412  0D6F  3001               	movlw	1
  2413  0D70                     u3325:	
  2414  0D70  36E5               	lsrf	??_sqrt+3,f
  2415  0D71  0CE4               	rrf	??_sqrt+2,f
  2416  0D72  0CE3               	rrf	??_sqrt+1,f
  2417  0D73  0CE2               	rrf	??_sqrt,f
  2418  0D74  0B89               	decfsz	9,f
  2419  0D75  2D70               	goto	u3325
  2420  0D76  0865               	movf	??_sqrt+3,w
  2421  0D77  0021               	movlb	1	; select bank1
  2422  0D78  00E0               	movwf	(sqrt@frac+3)^(0+128)
  2423  0D79  0020               	movlb	0	; select bank0
  2424  0D7A  0864               	movf	??_sqrt+2,w
  2425  0D7B  0021               	movlb	1	; select bank1
  2426  0D7C  00DF               	movwf	(sqrt@frac+2)^(0+128)
  2427  0D7D  0020               	movlb	0	; select bank0
  2428  0D7E  0863               	movf	??_sqrt+1,w
  2429  0D7F  0021               	movlb	1	; select bank1
  2430  0D80  00DE               	movwf	(sqrt@frac+1)^(0+128)
  2431  0D81  0020               	movlb	0	; select bank0
  2432  0D82  0862               	movf	??_sqrt,w
  2433  0D83  0021               	movlb	1	; select bank1
  2434  0D84  00DD               	movwf	sqrt@frac^(0+128)
  2435  0D85  0853               	movf	sqrt@grs^(0+128),w
  2436  0D86  07DD               	addwf	sqrt@frac^(0+128),f
  2437  0D87  0854               	movf	(sqrt@grs+1)^(0+128),w
  2438  0D88  3DDE               	addwfc	(sqrt@frac+1)^(0+128),f
  2439  0D89  0855               	movf	(sqrt@grs+2)^(0+128),w
  2440  0D8A  3DDF               	addwfc	(sqrt@frac+2)^(0+128),f
  2441  0D8B  0856               	movf	(sqrt@grs+3)^(0+128),w
  2442  0D8C  3DE0               	addwfc	(sqrt@frac+3)^(0+128),f
  2443  0D8D  1C60               	btfss	(sqrt@frac+3)^(0+128),0
  2444  0D8E  2DB8               	goto	l2657
  2445  0D8F  085D               	movf	sqrt@frac^(0+128),w
  2446  0D90  0020               	movlb	0	; select bank0
  2447  0D91  00E2               	movwf	??_sqrt
  2448  0D92  0021               	movlb	1	; select bank1
  2449  0D93  085E               	movf	(sqrt@frac+1)^(0+128),w
  2450  0D94  0020               	movlb	0	; select bank0
  2451  0D95  00E3               	movwf	??_sqrt+1
  2452  0D96  0021               	movlb	1	; select bank1
  2453  0D97  085F               	movf	(sqrt@frac+2)^(0+128),w
  2454  0D98  0020               	movlb	0	; select bank0
  2455  0D99  00E4               	movwf	??_sqrt+2
  2456  0D9A  0021               	movlb	1	; select bank1
  2457  0D9B  0860               	movf	(sqrt@frac+3)^(0+128),w
  2458  0D9C  0020               	movlb	0	; select bank0
  2459  0D9D  00E5               	movwf	??_sqrt+3
  2460  0D9E  3001               	movlw	1
  2461  0D9F                     u3345:	
  2462  0D9F  36E5               	lsrf	??_sqrt+3,f
  2463  0DA0  0CE4               	rrf	??_sqrt+2,f
  2464  0DA1  0CE3               	rrf	??_sqrt+1,f
  2465  0DA2  0CE2               	rrf	??_sqrt,f
  2466  0DA3  0B89               	decfsz	9,f
  2467  0DA4  2D9F               	goto	u3345
  2468  0DA5  0865               	movf	??_sqrt+3,w
  2469  0DA6  0021               	movlb	1	; select bank1
  2470  0DA7  00E0               	movwf	(sqrt@frac+3)^(0+128)
  2471  0DA8  0020               	movlb	0	; select bank0
  2472  0DA9  0864               	movf	??_sqrt+2,w
  2473  0DAA  0021               	movlb	1	; select bank1
  2474  0DAB  00DF               	movwf	(sqrt@frac+2)^(0+128)
  2475  0DAC  0020               	movlb	0	; select bank0
  2476  0DAD  0863               	movf	??_sqrt+1,w
  2477  0DAE  0021               	movlb	1	; select bank1
  2478  0DAF  00DE               	movwf	(sqrt@frac+1)^(0+128)
  2479  0DB0  0020               	movlb	0	; select bank0
  2480  0DB1  0862               	movf	??_sqrt,w
  2481  0DB2  0021               	movlb	1	; select bank1
  2482  0DB3  00DD               	movwf	sqrt@frac^(0+128)
  2483  0DB4  3001               	movlw	1
  2484  0DB5  07D7               	addwf	sqrt@exp^(0+128),f
  2485  0DB6  3000               	movlw	0
  2486  0DB7  3DD8               	addwfc	(sqrt@exp+1)^(0+128),f
  2487  0DB8                     l2657:	
  2488  0DB8  30FF               	movlw	255
  2489  0DB9  055D               	andwf	sqrt@frac^(0+128),w
  2490  0DBA  00D9               	movwf	sqrt@root^(0+128)
  2491  0DBB  30FF               	movlw	255
  2492  0DBC  055E               	andwf	(sqrt@frac+1)^(0+128),w
  2493  0DBD  00DA               	movwf	(sqrt@root+1)^(0+128)
  2494  0DBE  307F               	movlw	127
  2495  0DBF  055F               	andwf	(sqrt@frac+2)^(0+128),w
  2496  0DC0  00DB               	movwf	(sqrt@root+2)^(0+128)
  2497  0DC1  3000               	movlw	0
  2498  0DC2  0560               	andwf	(sqrt@frac+3)^(0+128),w
  2499  0DC3  00DC               	movwf	(sqrt@root+3)^(0+128)
  2500  0DC4  0857               	movf	sqrt@exp^(0+128),w
  2501  0DC5  0020               	movlb	0	; select bank0
  2502  0DC6  00E2               	movwf	??_sqrt
  2503  0DC7  0862               	movf	??_sqrt,w
  2504  0DC8  0021               	movlb	1	; select bank1
  2505  0DC9  00D2               	movwf	sqrt@p^(0+128)
  2506  0DCA  1852               	btfsc	sqrt@p^(0+128),0
  2507  0DCB  17DB               	bsf	(sqrt@root^(0+128)+2),7
  2508  0DCC  3652               	lsrf	sqrt@p^(0+128),w
  2509  0DCD  0020               	movlb	0	; select bank0
  2510  0DCE  00E2               	movwf	??_sqrt
  2511  0DCF  0862               	movf	??_sqrt,w
  2512  0DD0  0021               	movlb	1	; select bank1
  2513  0DD1  00DC               	movwf	(sqrt@root^(0+128)+3)
  2514  0DD2  307F               	movlw	127
  2515  0DD3  0020               	movlb	0	; select bank0
  2516  0DD4  00E2               	movwf	??_sqrt
  2517  0DD5  0862               	movf	??_sqrt,w
  2518  0DD6  0021               	movlb	1	; select bank1
  2519  0DD7  05DC               	andwf	(sqrt@root^(0+128)+3),f
  2520  0DD8  085C               	movf	(sqrt@root+3)^(0+128),w
  2521  0DD9  0020               	movlb	0	; select bank0
  2522  0DDA  00E1               	movwf	?_sqrt+3
  2523  0DDB  0021               	movlb	1	; select bank1
  2524  0DDC  085B               	movf	(sqrt@root+2)^(0+128),w
  2525  0DDD  0020               	movlb	0	; select bank0
  2526  0DDE  00E0               	movwf	?_sqrt+2
  2527  0DDF  0021               	movlb	1	; select bank1
  2528  0DE0  085A               	movf	(sqrt@root+1)^(0+128),w
  2529  0DE1  0020               	movlb	0	; select bank0
  2530  0DE2  00DF               	movwf	?_sqrt+1
  2531  0DE3  0021               	movlb	1	; select bank1
  2532  0DE4  0859               	movf	sqrt@root^(0+128),w
  2533  0DE5  0020               	movlb	0	; select bank0
  2534  0DE6  00DE               	movwf	?_sqrt
  2535  0DE7  0008               	return
  2536  0DE8                     __end_of_sqrt:	
  2537                           
  2538                           	psect	text2
  2539  0735                     __ptext2:	
  2540 ;; *************** function _init_I2C_buffer *****************
  2541 ;; Defined at:
  2542 ;;		line 87 in file "main.c"
  2543 ;; Parameters:    Size  Location     Type
  2544 ;;		None
  2545 ;; Auto vars:     Size  Location     Type
  2546 ;;		None
  2547 ;; Return value:  Size  Location     Type
  2548 ;;                  1    wreg      void 
  2549 ;; Registers used:
  2550 ;;		wreg, status,2, status,0, pclath, cstack
  2551 ;; Tracked objects:
  2552 ;;		On entry : B1F/1
  2553 ;;		On exit  : 1F/1
  2554 ;;		Unchanged: 0/0
  2555 ;; Data sizes:     COMMON   BANK0   BANK1   BANK2
  2556 ;;      Params:         0       0       0       0
  2557 ;;      Locals:         0       0       0       0
  2558 ;;      Temps:          1       0       0       0
  2559 ;;      Totals:         1       0       0       0
  2560 ;;Total ram usage:        1 bytes
  2561 ;; Hardware stack levels used:    1
  2562 ;; Hardware stack levels required when called:    2
  2563 ;; This function calls:
  2564 ;;		_eeprom_read
  2565 ;; This function is called by:
  2566 ;;		_main
  2567 ;; This function uses a non-reentrant model
  2568 ;;
  2569                           
  2570                           
  2571                           ;psect for function _init_I2C_buffer
  2572  0735                     _init_I2C_buffer:	
  2573                           
  2574                           ;main.c: 89: I2C_buffer.data.ID = 0x02;
  2575                           
  2576                           ;incstack = 0
  2577                           ; Regs used in _init_I2C_buffer: [wreg+status,2+status,0+pclath+cstack]
  2578  0735  3002               	movlw	2
  2579  0736  00F5               	movwf	??_init_I2C_buffer
  2580  0737  0875               	movf	??_init_I2C_buffer,w
  2581  0738  00A0               	movwf	_I2C_buffer^(0+128)	;volatile
  2582                           
  2583                           ;main.c: 90: I2C_buffer.data.RESET = 0;
  2584  0739  01A1               	clrf	(_I2C_buffer^(0+128)+1)	;volatile
  2585                           
  2586                           ;main.c: 91: I2C_buffer.data.SAVE = 0;
  2587  073A  01A2               	clrf	(_I2C_buffer^(0+128)+2)	;volatile
  2588                           
  2589                           ;main.c: 92: I2C_buffer.byte[0x03] = eeprom_read(0);
  2590  073B  3000               	movlw	0
  2591  073C  3187  27EA  3187   	fcall	_eeprom_read
  2592  073F  00F5               	movwf	??_init_I2C_buffer
  2593  0740  0875               	movf	??_init_I2C_buffer,w
  2594  0741  0021               	movlb	1	; select bank1
  2595  0742  00A3               	movwf	(_I2C_buffer^(0+128)+3)	;volatile
  2596                           
  2597                           ;main.c: 93: I2C_buffer.byte[0x04] = eeprom_read(1);
  2598  0743  3001               	movlw	1
  2599  0744  3187  27EA  3187   	fcall	_eeprom_read
  2600  0747  00F5               	movwf	??_init_I2C_buffer
  2601  0748  0875               	movf	??_init_I2C_buffer,w
  2602  0749  0021               	movlb	1	; select bank1
  2603  074A  00A4               	movwf	(_I2C_buffer^(0+128)+4)	;volatile
  2604                           
  2605                           ;main.c: 94: I2C_buffer.byte[0x05] = eeprom_read(2);
  2606  074B  3002               	movlw	2
  2607  074C  3187  27EA  3187   	fcall	_eeprom_read
  2608  074F  00F5               	movwf	??_init_I2C_buffer
  2609  0750  0875               	movf	??_init_I2C_buffer,w
  2610  0751  0021               	movlb	1	; select bank1
  2611  0752  00A5               	movwf	(_I2C_buffer^(0+128)+5)	;volatile
  2612                           
  2613                           ;main.c: 95: I2C_buffer.byte[0x06] = eeprom_read(3);
  2614  0753  3003               	movlw	3
  2615  0754  3187  27EA  3187   	fcall	_eeprom_read
  2616  0757  00F5               	movwf	??_init_I2C_buffer
  2617  0758  0875               	movf	??_init_I2C_buffer,w
  2618  0759  0021               	movlb	1	; select bank1
  2619  075A  00A6               	movwf	(_I2C_buffer^(0+128)+6)	;volatile
  2620                           
  2621                           ;main.c: 96: I2C_buffer.byte[0x07] = eeprom_read(4);
  2622  075B  3004               	movlw	4
  2623  075C  3187  27EA  3187   	fcall	_eeprom_read
  2624  075F  00F5               	movwf	??_init_I2C_buffer
  2625  0760  0875               	movf	??_init_I2C_buffer,w
  2626  0761  0021               	movlb	1	; select bank1
  2627  0762  00A7               	movwf	(_I2C_buffer^(0+128)+7)	;volatile
  2628                           
  2629                           ;main.c: 97: I2C_buffer.byte[0x08] = eeprom_read(5);
  2630  0763  3005               	movlw	5
  2631  0764  3187  27EA  3187   	fcall	_eeprom_read
  2632  0767  00F5               	movwf	??_init_I2C_buffer
  2633  0768  0875               	movf	??_init_I2C_buffer,w
  2634  0769  0021               	movlb	1	; select bank1
  2635  076A  00A8               	movwf	(_I2C_buffer^(0+128)+8)	;volatile
  2636                           
  2637                           ;main.c: 98: I2C_buffer.byte[0x09] = eeprom_read(6);
  2638  076B  3006               	movlw	6
  2639  076C  3187  27EA  3187   	fcall	_eeprom_read
  2640  076F  00F5               	movwf	??_init_I2C_buffer
  2641  0770  0875               	movf	??_init_I2C_buffer,w
  2642  0771  0021               	movlb	1	; select bank1
  2643  0772  00A9               	movwf	(_I2C_buffer^(0+128)+9)	;volatile
  2644                           
  2645                           ;main.c: 99: I2C_buffer.byte[0x0A] = eeprom_read(7);
  2646  0773  3007               	movlw	7
  2647  0774  3187  27EA  3187   	fcall	_eeprom_read
  2648  0777  00F5               	movwf	??_init_I2C_buffer
  2649  0778  0875               	movf	??_init_I2C_buffer,w
  2650  0779  0021               	movlb	1	; select bank1
  2651  077A  00AA               	movwf	(_I2C_buffer^(0+128)+10)	;volatile
  2652                           
  2653                           ;main.c: 100: I2C_buffer.byte[0x0B] = eeprom_read(8);
  2654  077B  3008               	movlw	8
  2655  077C  3187  27EA  3187   	fcall	_eeprom_read
  2656  077F  00F5               	movwf	??_init_I2C_buffer
  2657  0780  0875               	movf	??_init_I2C_buffer,w
  2658  0781  0021               	movlb	1	; select bank1
  2659  0782  00AB               	movwf	(_I2C_buffer^(0+128)+11)	;volatile
  2660                           
  2661                           ;main.c: 101: I2C_buffer.byte[0x0C] = eeprom_read(9);
  2662  0783  3009               	movlw	9
  2663  0784  3187  27EA         	fcall	_eeprom_read
  2664  0786  00F5               	movwf	??_init_I2C_buffer
  2665  0787  0875               	movf	??_init_I2C_buffer,w
  2666  0788  0021               	movlb	1	; select bank1
  2667  0789  00AC               	movwf	(_I2C_buffer^(0+128)+12)	;volatile
  2668                           
  2669                           ;main.c: 102: I2C_buffer.data.Irms = 0;
  2670  078A  3000               	movlw	0
  2671  078B  00B0               	movwf	((_I2C_buffer+3)^(0+128)+13)	;volatile
  2672  078C  3000               	movlw	0
  2673  078D  00AF               	movwf	((_I2C_buffer+2)^(0+128)+13)	;volatile
  2674  078E  3000               	movlw	0
  2675  078F  00AE               	movwf	((_I2C_buffer+1)^(0+128)+13)	;volatile
  2676  0790  3000               	movlw	0
  2677  0791  00AD               	movwf	(_I2C_buffer^(0+128)+13)	;volatile
  2678                           
  2679                           ;main.c: 103: I2C_buffer.data.Vrms = 0;
  2680  0792  3000               	movlw	0
  2681  0793  00B4               	movwf	((_I2C_buffer+3)^(0+128)+17)	;volatile
  2682  0794  3000               	movlw	0
  2683  0795  00B3               	movwf	((_I2C_buffer+2)^(0+128)+17)	;volatile
  2684  0796  3000               	movlw	0
  2685  0797  00B2               	movwf	((_I2C_buffer+1)^(0+128)+17)	;volatile
  2686  0798  3000               	movlw	0
  2687  0799  00B1               	movwf	(_I2C_buffer^(0+128)+17)	;volatile
  2688                           
  2689                           ;main.c: 104: I2C_buffer.data.Power = 0;
  2690  079A  3000               	movlw	0
  2691  079B  00B8               	movwf	((_I2C_buffer+3)^(0+128)+21)	;volatile
  2692  079C  3000               	movlw	0
  2693  079D  00B7               	movwf	((_I2C_buffer+2)^(0+128)+21)	;volatile
  2694  079E  3000               	movlw	0
  2695  079F  00B6               	movwf	((_I2C_buffer+1)^(0+128)+21)	;volatile
  2696  07A0  3000               	movlw	0
  2697  07A1  00B5               	movwf	(_I2C_buffer^(0+128)+21)	;volatile
  2698                           
  2699                           ;main.c: 105: I2C_buffer.data.AvPower = 0;
  2700  07A2  3000               	movlw	0
  2701  07A3  00BC               	movwf	((_I2C_buffer+3)^(0+128)+25)	;volatile
  2702  07A4  3000               	movlw	0
  2703  07A5  00BB               	movwf	((_I2C_buffer+2)^(0+128)+25)	;volatile
  2704  07A6  3000               	movlw	0
  2705  07A7  00BA               	movwf	((_I2C_buffer+1)^(0+128)+25)	;volatile
  2706  07A8  3000               	movlw	0
  2707  07A9  00B9               	movwf	(_I2C_buffer^(0+128)+25)	;volatile
  2708  07AA  0008               	return
  2709  07AB                     __end_of_init_I2C_buffer:	
  2710                           
  2711                           	psect	text3
  2712  07EA                     __ptext3:	
  2713 ;; *************** function _eeprom_read *****************
  2714 ;; Defined at:
  2715 ;;		line 6 in file "C:\Program Files (x86)\Microchip\xc8\v2.10\pic\sources\c90\pic\__eeread.c"
  2716 ;; Parameters:    Size  Location     Type
  2717 ;;  addr            1    wreg     unsigned char 
  2718 ;; Auto vars:     Size  Location     Type
  2719 ;;  addr            1    4[COMMON] unsigned char 
  2720 ;; Return value:  Size  Location     Type
  2721 ;;                  1    wreg      unsigned char 
  2722 ;; Registers used:
  2723 ;;		wreg, status,2, status,0
  2724 ;; Tracked objects:
  2725 ;;		On entry : 1F/1
  2726 ;;		On exit  : 1F/3
  2727 ;;		Unchanged: 0/0
  2728 ;; Data sizes:     COMMON   BANK0   BANK1   BANK2
  2729 ;;      Params:         0       0       0       0
  2730 ;;      Locals:         1       0       0       0
  2731 ;;      Temps:          3       0       0       0
  2732 ;;      Totals:         4       0       0       0
  2733 ;;Total ram usage:        4 bytes
  2734 ;; Hardware stack levels used:    1
  2735 ;; Hardware stack levels required when called:    1
  2736 ;; This function calls:
  2737 ;;		Nothing
  2738 ;; This function is called by:
  2739 ;;		_init_I2C_buffer
  2740 ;; This function uses a non-reentrant model
  2741 ;;
  2742                           
  2743                           
  2744                           ;psect for function _eeprom_read
  2745  07EA                     _eeprom_read:	
  2746                           
  2747                           ;incstack = 0
  2748                           ; Regs used in _eeprom_read: [wreg+status,2+status,0]
  2749                           ;eeprom_read@addr stored from wreg
  2750  07EA  00F4               	movwf	eeprom_read@addr
  2751  07EB  2FED               	goto	l271
  2752  07EC                     u3091:	
  2753  07EC  0021               	movlb	1	; select bank1
  2754  07ED                     l271:	
  2755                           ;__eeread.c: 8: do
  2756                           
  2757  07ED  0064               	clrwdt	;# 
  2758                           
  2759                           ;__eeread.c: 12: while(EECON1bits.WR);
  2760  07EE  0023               	movlb	3	; select bank3
  2761  07EF  1895               	btfsc	21,1	;volsfr
  2762  07F0  2FEC               	goto	u3091
  2763                           
  2764                           ;__eeread.c: 18: return ( EEADR = addr, EECON1 &= 0x3F, EECON1bits.RD = 1, EEDATA);
  2765  07F1  0874               	movf	eeprom_read@addr,w
  2766  07F2  00F1               	movwf	??_eeprom_read
  2767  07F3  01F2               	clrf	??_eeprom_read+1
  2768  07F4  0871               	movf	??_eeprom_read,w
  2769  07F5  0091               	movwf	17	;volatile
  2770  07F6  0872               	movf	??_eeprom_read+1,w
  2771  07F7  0092               	movwf	18	;volatile
  2772  07F8  303F               	movlw	63
  2773  07F9  00F3               	movwf	??_eeprom_read+2
  2774  07FA  0873               	movf	??_eeprom_read+2,w
  2775  07FB  0595               	andwf	21,f	;volsfr
  2776  07FC  1415               	bsf	21,0	;volsfr
  2777  07FD  0813               	movf	19,w	;volatile
  2778  07FE  0008               	return
  2779  07FF                     __end_of_eeprom_read:	
  2780                           
  2781                           	psect	text4
  2782  07AB                     __ptext4:	
  2783 ;; *************** function _eeprom_write *****************
  2784 ;; Defined at:
  2785 ;;		line 6 in file "C:\Program Files (x86)\Microchip\xc8\v2.10\pic\sources\c90\pic\__eewrite.c"
  2786 ;; Parameters:    Size  Location     Type
  2787 ;;  addr            1    wreg     unsigned char 
  2788 ;;  value           1    1[COMMON] unsigned char 
  2789 ;; Auto vars:     Size  Location     Type
  2790 ;;  addr            1    4[COMMON] unsigned char 
  2791 ;; Return value:  Size  Location     Type
  2792 ;;                  1    wreg      void 
  2793 ;; Registers used:
  2794 ;;		wreg, status,2, status,0
  2795 ;; Tracked objects:
  2796 ;;		On entry : 1F/1
  2797 ;;		On exit  : 1F/3
  2798 ;;		Unchanged: 0/0
  2799 ;; Data sizes:     COMMON   BANK0   BANK1   BANK2
  2800 ;;      Params:         1       0       0       0
  2801 ;;      Locals:         1       0       0       0
  2802 ;;      Temps:          2       0       0       0
  2803 ;;      Totals:         4       0       0       0
  2804 ;;Total ram usage:        4 bytes
  2805 ;; Hardware stack levels used:    1
  2806 ;; Hardware stack levels required when called:    1
  2807 ;; This function calls:
  2808 ;;		Nothing
  2809 ;; This function is called by:
  2810 ;;		_main
  2811 ;; This function uses a non-reentrant model
  2812 ;;
  2813                           
  2814                           
  2815                           ;psect for function _eeprom_write
  2816  07AB                     _eeprom_write:	
  2817                           
  2818                           ;incstack = 0
  2819                           ; Regs used in _eeprom_write: [wreg+status,2+status,0]
  2820                           ;eeprom_write@addr stored from wreg
  2821  07AB  00F4               	movwf	eeprom_write@addr
  2822  07AC                     l291:	
  2823                           ;__eewrite.c: 8: do{ while (EECON1bits.WR) { continue; } EEADR = (addr); EEDATA = (value
      +                          ); EECON1 &= 0x3F; STATUSbits.CARRY = 0; if (INTCONbits.GIE) { STATUSbits.CARRY = 1; } I
      +                          NTCONbits.GIE = 0; EECON1bits.WREN = 1; EECON2 = 0x55; EECON2 = 0xAA; EECON1bits.WR = 1;
      +                           EE
  2824                           
  2825  07AC  0023               	movlb	3	; select bank3
  2826  07AD  1895               	btfsc	21,1	;volsfr
  2827  07AE  2FAC               	goto	l291
  2828  07AF  0874               	movf	eeprom_write@addr,w
  2829  07B0  00F2               	movwf	??_eeprom_write
  2830  07B1  01F3               	clrf	??_eeprom_write+1
  2831  07B2  0872               	movf	??_eeprom_write,w
  2832  07B3  0091               	movwf	17	;volatile
  2833  07B4  0873               	movf	??_eeprom_write+1,w
  2834  07B5  0092               	movwf	18	;volatile
  2835  07B6  0871               	movf	eeprom_write@value,w
  2836  07B7  0093               	movwf	19	;volatile
  2837  07B8  303F               	movlw	63
  2838  07B9  00F2               	movwf	??_eeprom_write
  2839  07BA  0872               	movf	??_eeprom_write,w
  2840  07BB  0595               	andwf	21,f	;volsfr
  2841  07BC  1003               	bcf	3,0	;volatile
  2842  07BD  1B8B               	btfsc	11,7	;volatile
  2843  07BE  1403               	bsf	3,0	;volatile
  2844  07BF  138B               	bcf	11,7	;volatile
  2845  07C0  1515               	bsf	21,2	;volsfr
  2846  07C1  3055               	movlw	85
  2847  07C2  0096               	movwf	22	;volsfr
  2848  07C3  30AA               	movlw	170
  2849  07C4  0096               	movwf	22	;volsfr
  2850  07C5  1495               	bsf	21,1	;volsfr
  2851  07C6  1115               	bcf	21,2	;volsfr
  2852  07C7  1C03               	btfss	3,0	;volatile
  2853  07C8  0008               	return
  2854  07C9  178B               	bsf	11,7	;volatile
  2855  07CA  0008               	return
  2856  07CB                     __end_of_eeprom_write:	
  2857                           
  2858                           	psect	text5
  2859  069F                     __ptext5:	
  2860 ;; *************** function ___xxtofl *****************
  2861 ;; Defined at:
  2862 ;;		line 10 in file "C:\Program Files (x86)\Microchip\xc8\v2.10\pic\sources\c90\common\xxtofl.c"
  2863 ;; Parameters:    Size  Location     Type
  2864 ;;  sign            1    wreg     unsigned char 
  2865 ;;  val             4    5[COMMON] long 
  2866 ;; Auto vars:     Size  Location     Type
  2867 ;;  sign            1    4[BANK0 ] unsigned char 
  2868 ;;  arg             4    6[BANK0 ] unsigned long 
  2869 ;;  exp             1    5[BANK0 ] unsigned char 
  2870 ;; Return value:  Size  Location     Type
  2871 ;;                  4    5[COMMON] unsigned char 
  2872 ;; Registers used:
  2873 ;;		wreg, status,2, status,0
  2874 ;; Tracked objects:
  2875 ;;		On entry : 1F/1
  2876 ;;		On exit  : 1F/0
  2877 ;;		Unchanged: 0/0
  2878 ;; Data sizes:     COMMON   BANK0   BANK1   BANK2
  2879 ;;      Params:         4       0       0       0
  2880 ;;      Locals:         0       6       0       0
  2881 ;;      Temps:          0       4       0       0
  2882 ;;      Totals:         4      10       0       0
  2883 ;;Total ram usage:       14 bytes
  2884 ;; Hardware stack levels used:    1
  2885 ;; Hardware stack levels required when called:    1
  2886 ;; This function calls:
  2887 ;;		Nothing
  2888 ;; This function is called by:
  2889 ;;		_main
  2890 ;; This function uses a non-reentrant model
  2891 ;;
  2892                           
  2893                           
  2894                           ;psect for function ___xxtofl
  2895  069F                     ___xxtofl:	
  2896                           
  2897                           ;incstack = 0
  2898                           ; Regs used in ___xxtofl: [wreg+status,2+status,0]
  2899                           ;___xxtofl@sign stored from wreg
  2900  069F  0020               	movlb	0	; select bank0
  2901  06A0  00A4               	movwf	___xxtofl@sign
  2902  06A1  0824               	movf	___xxtofl@sign,w
  2903  06A2  1D03               	btfss	3,2
  2904  06A3  1FF8               	btfss	___xxtofl@val+3,7
  2905  06A4  2EB5               	goto	l3151
  2906  06A5  0975               	comf	___xxtofl@val,w
  2907  06A6  00A6               	movwf	___xxtofl@arg
  2908  06A7  0976               	comf	___xxtofl@val+1,w
  2909  06A8  00A7               	movwf	___xxtofl@arg+1
  2910  06A9  0977               	comf	___xxtofl@val+2,w
  2911  06AA  00A8               	movwf	___xxtofl@arg+2
  2912  06AB  0978               	comf	___xxtofl@val+3,w
  2913  06AC  00A9               	movwf	___xxtofl@arg+3
  2914  06AD  0AA6               	incf	___xxtofl@arg,f
  2915  06AE  1903               	skipnz
  2916  06AF  0AA7               	incf	___xxtofl@arg+1,f
  2917  06B0  1903               	skipnz
  2918  06B1  0AA8               	incf	___xxtofl@arg+2,f
  2919  06B2  1903               	skipnz
  2920  06B3  0AA9               	incf	___xxtofl@arg+3,f
  2921  06B4  2EBD               	goto	l748
  2922  06B5                     l3151:	
  2923  06B5  0878               	movf	___xxtofl@val+3,w
  2924  06B6  00A9               	movwf	___xxtofl@arg+3
  2925  06B7  0877               	movf	___xxtofl@val+2,w
  2926  06B8  00A8               	movwf	___xxtofl@arg+2
  2927  06B9  0876               	movf	___xxtofl@val+1,w
  2928  06BA  00A7               	movwf	___xxtofl@arg+1
  2929  06BB  0875               	movf	___xxtofl@val,w
  2930  06BC  00A6               	movwf	___xxtofl@arg
  2931  06BD                     l748:	
  2932  06BD  0878               	movf	___xxtofl@val+3,w
  2933  06BE  0477               	iorwf	___xxtofl@val+2,w
  2934  06BF  0476               	iorwf	___xxtofl@val+1,w
  2935  06C0  0475               	iorwf	___xxtofl@val,w
  2936  06C1  1D03               	skipz
  2937  06C2  2ECC               	goto	l3157
  2938  06C3  3000               	movlw	0
  2939  06C4  00F8               	movwf	?___xxtofl+3
  2940  06C5  3000               	movlw	0
  2941  06C6  00F7               	movwf	?___xxtofl+2
  2942  06C7  3000               	movlw	0
  2943  06C8  00F6               	movwf	?___xxtofl+1
  2944  06C9  3000               	movlw	0
  2945  06CA  00F5               	movwf	?___xxtofl
  2946  06CB  0008               	return
  2947  06CC                     l3157:	
  2948  06CC  3096               	movlw	150
  2949  06CD  00A0               	movwf	??___xxtofl
  2950  06CE  0820               	movf	??___xxtofl,w
  2951  06CF  00A5               	movwf	___xxtofl@exp
  2952  06D0                     l3161:	
  2953  06D0  30FE               	movlw	254
  2954  06D1  0529               	andwf	___xxtofl@arg+3,w
  2955  06D2  1903               	btfsc	3,2
  2956  06D3  2EF3               	goto	l754
  2957  06D4  3001               	movlw	1
  2958  06D5  00A0               	movwf	??___xxtofl
  2959  06D6  0820               	movf	??___xxtofl,w
  2960  06D7  07A5               	addwf	___xxtofl@exp,f
  2961  06D8  3001               	movlw	1
  2962  06D9                     u4365:	
  2963  06D9  36A9               	lsrf	___xxtofl@arg+3,f
  2964  06DA  0CA8               	rrf	___xxtofl@arg+2,f
  2965  06DB  0CA7               	rrf	___xxtofl@arg+1,f
  2966  06DC  0CA6               	rrf	___xxtofl@arg,f
  2967  06DD  0B89               	decfsz	9,f
  2968  06DE  2ED9               	goto	u4365
  2969  06DF  2ED0               	goto	l3161
  2970  06E0                     l3163:	
  2971  06E0  3001               	movlw	1
  2972  06E1  00A0               	movwf	??___xxtofl
  2973  06E2  0820               	movf	??___xxtofl,w
  2974  06E3  07A5               	addwf	___xxtofl@exp,f
  2975  06E4  3001               	movlw	1
  2976  06E5  07A6               	addwf	___xxtofl@arg,f
  2977  06E6  3000               	movlw	0
  2978  06E7  3DA7               	addwfc	___xxtofl@arg+1,f
  2979  06E8  3000               	movlw	0
  2980  06E9  3DA8               	addwfc	___xxtofl@arg+2,f
  2981  06EA  3000               	movlw	0
  2982  06EB  3DA9               	addwfc	___xxtofl@arg+3,f
  2983  06EC  3001               	movlw	1
  2984  06ED                     u4385:	
  2985  06ED  36A9               	lsrf	___xxtofl@arg+3,f
  2986  06EE  0CA8               	rrf	___xxtofl@arg+2,f
  2987  06EF  0CA7               	rrf	___xxtofl@arg+1,f
  2988  06F0  0CA6               	rrf	___xxtofl@arg,f
  2989  06F1  0B89               	decfsz	9,f
  2990  06F2  2EED               	goto	u4385
  2991  06F3                     l754:	
  2992  06F3  30FF               	movlw	255
  2993  06F4  0529               	andwf	___xxtofl@arg+3,w
  2994  06F5  1903               	btfsc	3,2
  2995  06F6  2F05               	goto	l3171
  2996  06F7  2EE0               	goto	l3163
  2997  06F8                     l3173:	
  2998  06F8  3002               	movlw	2
  2999  06F9  0225               	subwf	___xxtofl@exp,w
  3000  06FA  1C03               	btfss	3,0
  3001  06FB  2F07               	goto	l761
  3002  06FC  3001               	movlw	1
  3003  06FD  02A5               	subwf	___xxtofl@exp,f
  3004  06FE  3001               	movlw	1
  3005  06FF                     u4405:	
  3006  06FF  35A6               	lslf	___xxtofl@arg,f
  3007  0700  0DA7               	rlf	___xxtofl@arg+1,f
  3008  0701  0DA8               	rlf	___xxtofl@arg+2,f
  3009  0702  0DA9               	rlf	___xxtofl@arg+3,f
  3010  0703  0B89               	decfsz	9,f
  3011  0704  2EFF               	goto	u4405
  3012  0705                     l3171:	
  3013  0705  1FA8               	btfss	___xxtofl@arg+2,7
  3014  0706  2EF8               	goto	l3173
  3015  0707                     l761:	
  3016  0707  1825               	btfsc	___xxtofl@exp,0
  3017  0708  2F11               	goto	l762
  3018  0709  30FF               	movlw	255
  3019  070A  05A6               	andwf	___xxtofl@arg,f
  3020  070B  30FF               	movlw	255
  3021  070C  05A7               	andwf	___xxtofl@arg+1,f
  3022  070D  307F               	movlw	127
  3023  070E  05A8               	andwf	___xxtofl@arg+2,f
  3024  070F  30FF               	movlw	255
  3025  0710  05A9               	andwf	___xxtofl@arg+3,f
  3026  0711                     l762:	
  3027  0711  1003               	clrc
  3028  0712  0CA5               	rrf	___xxtofl@exp,f
  3029  0713  0825               	movf	___xxtofl@exp,w
  3030  0714  00A0               	movwf	??___xxtofl
  3031  0715  01A1               	clrf	??___xxtofl+1
  3032  0716  01A2               	clrf	??___xxtofl+2
  3033  0717  01A3               	clrf	??___xxtofl+3
  3034  0718  3018               	movlw	24
  3035  0719                     u4445:	
  3036  0719  35A0               	lslf	??___xxtofl,f
  3037  071A  0DA1               	rlf	??___xxtofl+1,f
  3038  071B  0DA2               	rlf	??___xxtofl+2,f
  3039  071C  0DA3               	rlf	??___xxtofl+3,f
  3040  071D  0B89               	decfsz	9,f
  3041  071E  2F19               	goto	u4445
  3042  071F  0820               	movf	??___xxtofl,w
  3043  0720  04A6               	iorwf	___xxtofl@arg,f
  3044  0721  0821               	movf	??___xxtofl+1,w
  3045  0722  04A7               	iorwf	___xxtofl@arg+1,f
  3046  0723  0822               	movf	??___xxtofl+2,w
  3047  0724  04A8               	iorwf	___xxtofl@arg+2,f
  3048  0725  0823               	movf	??___xxtofl+3,w
  3049  0726  04A9               	iorwf	___xxtofl@arg+3,f
  3050  0727  0824               	movf	___xxtofl@sign,w
  3051  0728  1D03               	btfss	3,2
  3052  0729  1FF8               	btfss	___xxtofl@val+3,7
  3053  072A  2F2C               	goto	l3185
  3054  072B  17A9               	bsf	___xxtofl@arg+3,7
  3055  072C                     l3185:	
  3056  072C  0829               	movf	___xxtofl@arg+3,w
  3057  072D  00F8               	movwf	?___xxtofl+3
  3058  072E  0828               	movf	___xxtofl@arg+2,w
  3059  072F  00F7               	movwf	?___xxtofl+2
  3060  0730  0827               	movf	___xxtofl@arg+1,w
  3061  0731  00F6               	movwf	?___xxtofl+1
  3062  0732  0826               	movf	___xxtofl@arg,w
  3063  0733  00F5               	movwf	?___xxtofl
  3064  0734  0008               	return
  3065  0735                     __end_of___xxtofl:	
  3066                           
  3067                           	psect	text6
  3068  0DE8                     __ptext6:	
  3069 ;; *************** function ___flmul *****************
  3070 ;; Defined at:
  3071 ;;		line 8 in file "C:\Program Files (x86)\Microchip\xc8\v2.10\pic\sources\c90\common\sprcmul.c"
  3072 ;; Parameters:    Size  Location     Type
  3073 ;;  b               4   10[BANK0 ] unsigned char 
  3074 ;;  a               4   14[BANK0 ] unsigned char 
  3075 ;; Auto vars:     Size  Location     Type
  3076 ;;  prod            4   30[BANK0 ] struct .
  3077 ;;  grs             4   26[BANK0 ] unsigned long 
  3078 ;;  temp            2   34[BANK0 ] struct .
  3079 ;;  bexp            1   25[BANK0 ] unsigned char 
  3080 ;;  aexp            1   24[BANK0 ] unsigned char 
  3081 ;;  sign            1   23[BANK0 ] unsigned char 
  3082 ;; Return value:  Size  Location     Type
  3083 ;;                  4   10[BANK0 ] unsigned char 
  3084 ;; Registers used:
  3085 ;;		wreg, status,2, status,0, pclath, cstack
  3086 ;; Tracked objects:
  3087 ;;		On entry : 1F/0
  3088 ;;		On exit  : 1F/0
  3089 ;;		Unchanged: 0/0
  3090 ;; Data sizes:     COMMON   BANK0   BANK1   BANK2
  3091 ;;      Params:         0       8       0       0
  3092 ;;      Locals:         0      13       0       0
  3093 ;;      Temps:          0       5       0       0
  3094 ;;      Totals:         0      26       0       0
  3095 ;;Total ram usage:       26 bytes
  3096 ;; Hardware stack levels used:    1
  3097 ;; Hardware stack levels required when called:    2
  3098 ;; This function calls:
  3099 ;;		__Umul8_16
  3100 ;; This function is called by:
  3101 ;;		_main
  3102 ;; This function uses a non-reentrant model
  3103 ;;
  3104                           
  3105                           
  3106                           ;psect for function ___flmul
  3107  0DE8                     ___flmul:	
  3108                           
  3109                           ;incstack = 0
  3110                           ; Regs used in ___flmul: [wreg+status,2+status,0+pclath+cstack]
  3111  0DE8  082D               	movf	___flmul@b+3,w
  3112  0DE9  3980               	andlw	128
  3113  0DEA  00B2               	movwf	??___flmul
  3114  0DEB  0832               	movf	??___flmul,w
  3115  0DEC  00B7               	movwf	___flmul@sign
  3116  0DED  352D               	lslf	___flmul@b+3,w
  3117  0DEE  00B2               	movwf	??___flmul
  3118  0DEF  0832               	movf	??___flmul,w
  3119  0DF0  00B9               	movwf	___flmul@bexp
  3120  0DF1  1BAC               	btfsc	___flmul@b+2,7
  3121  0DF2  1439               	bsf	___flmul@bexp,0
  3122  0DF3  0839               	movf	___flmul@bexp,w
  3123  0DF4  1903               	btfsc	3,2
  3124  0DF5  2E03               	goto	l3021
  3125  0DF6  0A39               	incf	___flmul@bexp,w
  3126  0DF7  1D03               	btfss	3,2
  3127  0DF8  2E01               	goto	l3019
  3128  0DF9  3000               	movlw	0
  3129  0DFA  00AD               	movwf	___flmul@b+3
  3130  0DFB  3000               	movlw	0
  3131  0DFC  00AC               	movwf	___flmul@b+2
  3132  0DFD  3000               	movlw	0
  3133  0DFE  00AB               	movwf	___flmul@b+1
  3134  0DFF  3000               	movlw	0
  3135  0E00  00AA               	movwf	___flmul@b
  3136  0E01                     l3019:	
  3137  0E01  17AC               	bsf	___flmul@b+2,7
  3138  0E02  2E0B               	goto	l3023
  3139  0E03                     l3021:	
  3140  0E03  3000               	movlw	0
  3141  0E04  00AD               	movwf	___flmul@b+3
  3142  0E05  3000               	movlw	0
  3143  0E06  00AC               	movwf	___flmul@b+2
  3144  0E07  3000               	movlw	0
  3145  0E08  00AB               	movwf	___flmul@b+1
  3146  0E09  3000               	movlw	0
  3147  0E0A  00AA               	movwf	___flmul@b
  3148  0E0B                     l3023:	
  3149  0E0B  0831               	movf	___flmul@a+3,w
  3150  0E0C  3980               	andlw	128
  3151  0E0D  00B2               	movwf	??___flmul
  3152  0E0E  0832               	movf	??___flmul,w
  3153  0E0F  06B7               	xorwf	___flmul@sign,f
  3154  0E10  3531               	lslf	___flmul@a+3,w
  3155  0E11  00B2               	movwf	??___flmul
  3156  0E12  0832               	movf	??___flmul,w
  3157  0E13  00B8               	movwf	___flmul@aexp
  3158  0E14  1BB0               	btfsc	___flmul@a+2,7
  3159  0E15  1438               	bsf	___flmul@aexp,0
  3160  0E16  0838               	movf	___flmul@aexp,w
  3161  0E17  1903               	btfsc	3,2
  3162  0E18  2E26               	goto	l3039
  3163  0E19  0A38               	incf	___flmul@aexp,w
  3164  0E1A  1D03               	btfss	3,2
  3165  0E1B  2E24               	goto	l3037
  3166  0E1C  3000               	movlw	0
  3167  0E1D  00B1               	movwf	___flmul@a+3
  3168  0E1E  3000               	movlw	0
  3169  0E1F  00B0               	movwf	___flmul@a+2
  3170  0E20  3000               	movlw	0
  3171  0E21  00AF               	movwf	___flmul@a+1
  3172  0E22  3000               	movlw	0
  3173  0E23  00AE               	movwf	___flmul@a
  3174  0E24                     l3037:	
  3175  0E24  17B0               	bsf	___flmul@a+2,7
  3176  0E25  2E2E               	goto	l3041
  3177  0E26                     l3039:	
  3178  0E26  3000               	movlw	0
  3179  0E27  00B1               	movwf	___flmul@a+3
  3180  0E28  3000               	movlw	0
  3181  0E29  00B0               	movwf	___flmul@a+2
  3182  0E2A  3000               	movlw	0
  3183  0E2B  00AF               	movwf	___flmul@a+1
  3184  0E2C  3000               	movlw	0
  3185  0E2D  00AE               	movwf	___flmul@a
  3186  0E2E                     l3041:	
  3187  0E2E  0838               	movf	___flmul@aexp,w
  3188  0E2F  1D03               	btfss	3,2
  3189  0E30  0839               	movf	___flmul@bexp,w
  3190  0E31  1D03               	btfss	3,2
  3191  0E32  2E3C               	goto	l3049
  3192  0E33  3000               	movlw	0
  3193  0E34  00AD               	movwf	?___flmul+3
  3194  0E35  3000               	movlw	0
  3195  0E36  00AC               	movwf	?___flmul+2
  3196  0E37  3000               	movlw	0
  3197  0E38  00AB               	movwf	?___flmul+1
  3198  0E39  3000               	movlw	0
  3199  0E3A  00AA               	movwf	?___flmul
  3200  0E3B  0008               	return
  3201  0E3C                     l3049:	
  3202  0E3C  082A               	movf	___flmul@b,w
  3203  0E3D  00B2               	movwf	??___flmul
  3204  0E3E  0832               	movf	??___flmul,w
  3205  0E3F  00F1               	movwf	__Umul8_16@multiplicand
  3206  0E40  0830               	movf	___flmul@a+2,w
  3207  0E41  3187  27CB  318D   	fcall	__Umul8_16
  3208  0E44  0872               	movf	?__Umul8_16+1,w
  3209  0E45  00C3               	movwf	___flmul@temp+1
  3210  0E46  0871               	movf	?__Umul8_16,w
  3211  0E47  00C2               	movwf	___flmul@temp
  3212  0E48  0842               	movf	___flmul@temp,w
  3213  0E49  00B2               	movwf	??___flmul
  3214  0E4A  01B3               	clrf	??___flmul+1
  3215  0E4B  01B4               	clrf	??___flmul+2
  3216  0E4C  01B5               	clrf	??___flmul+3
  3217  0E4D  0835               	movf	??___flmul+3,w
  3218  0E4E  00BD               	movwf	___flmul@grs+3
  3219  0E4F  0834               	movf	??___flmul+2,w
  3220  0E50  00BC               	movwf	___flmul@grs+2
  3221  0E51  0833               	movf	??___flmul+1,w
  3222  0E52  00BB               	movwf	___flmul@grs+1
  3223  0E53  0832               	movf	??___flmul,w
  3224  0E54  00BA               	movwf	___flmul@grs
  3225  0E55  0843               	movf	___flmul@temp+1,w
  3226  0E56  00B2               	movwf	??___flmul
  3227  0E57  01B3               	clrf	??___flmul+1
  3228  0E58  01B4               	clrf	??___flmul+2
  3229  0E59  01B5               	clrf	??___flmul+3
  3230  0E5A  0835               	movf	??___flmul+3,w
  3231  0E5B  00C1               	movwf	___flmul@prod+3
  3232  0E5C  0834               	movf	??___flmul+2,w
  3233  0E5D  00C0               	movwf	___flmul@prod+2
  3234  0E5E  0833               	movf	??___flmul+1,w
  3235  0E5F  00BF               	movwf	___flmul@prod+1
  3236  0E60  0832               	movf	??___flmul,w
  3237  0E61  00BE               	movwf	___flmul@prod
  3238  0E62  082B               	movf	___flmul@b+1,w
  3239  0E63  00B2               	movwf	??___flmul
  3240  0E64  0832               	movf	??___flmul,w
  3241  0E65  00F1               	movwf	__Umul8_16@multiplicand
  3242  0E66  082F               	movf	___flmul@a+1,w
  3243  0E67  3187  27CB  318D   	fcall	__Umul8_16
  3244  0E6A  0872               	movf	?__Umul8_16+1,w
  3245  0E6B  00C3               	movwf	___flmul@temp+1
  3246  0E6C  0871               	movf	?__Umul8_16,w
  3247  0E6D  00C2               	movwf	___flmul@temp
  3248  0E6E  0842               	movf	___flmul@temp,w
  3249  0E6F  00B2               	movwf	??___flmul
  3250  0E70  01B3               	clrf	??___flmul+1
  3251  0E71  01B4               	clrf	??___flmul+2
  3252  0E72  01B5               	clrf	??___flmul+3
  3253  0E73  0832               	movf	??___flmul,w
  3254  0E74  07BA               	addwf	___flmul@grs,f
  3255  0E75  0833               	movf	??___flmul+1,w
  3256  0E76  3DBB               	addwfc	___flmul@grs+1,f
  3257  0E77  0834               	movf	??___flmul+2,w
  3258  0E78  3DBC               	addwfc	___flmul@grs+2,f
  3259  0E79  0835               	movf	??___flmul+3,w
  3260  0E7A  3DBD               	addwfc	___flmul@grs+3,f
  3261  0E7B  0843               	movf	___flmul@temp+1,w
  3262  0E7C  00B2               	movwf	??___flmul
  3263  0E7D  01B3               	clrf	??___flmul+1
  3264  0E7E  01B4               	clrf	??___flmul+2
  3265  0E7F  01B5               	clrf	??___flmul+3
  3266  0E80  0832               	movf	??___flmul,w
  3267  0E81  07BE               	addwf	___flmul@prod,f
  3268  0E82  0833               	movf	??___flmul+1,w
  3269  0E83  3DBF               	addwfc	___flmul@prod+1,f
  3270  0E84  0834               	movf	??___flmul+2,w
  3271  0E85  3DC0               	addwfc	___flmul@prod+2,f
  3272  0E86  0835               	movf	??___flmul+3,w
  3273  0E87  3DC1               	addwfc	___flmul@prod+3,f
  3274  0E88  082C               	movf	___flmul@b+2,w
  3275  0E89  00B2               	movwf	??___flmul
  3276  0E8A  0832               	movf	??___flmul,w
  3277  0E8B  00F1               	movwf	__Umul8_16@multiplicand
  3278  0E8C  082E               	movf	___flmul@a,w
  3279  0E8D  3187  27CB  318D   	fcall	__Umul8_16
  3280  0E90  0872               	movf	?__Umul8_16+1,w
  3281  0E91  00C3               	movwf	___flmul@temp+1
  3282  0E92  0871               	movf	?__Umul8_16,w
  3283  0E93  00C2               	movwf	___flmul@temp
  3284  0E94  0842               	movf	___flmul@temp,w
  3285  0E95  00B2               	movwf	??___flmul
  3286  0E96  01B3               	clrf	??___flmul+1
  3287  0E97  01B4               	clrf	??___flmul+2
  3288  0E98  01B5               	clrf	??___flmul+3
  3289  0E99  0832               	movf	??___flmul,w
  3290  0E9A  07BA               	addwf	___flmul@grs,f
  3291  0E9B  0833               	movf	??___flmul+1,w
  3292  0E9C  3DBB               	addwfc	___flmul@grs+1,f
  3293  0E9D  0834               	movf	??___flmul+2,w
  3294  0E9E  3DBC               	addwfc	___flmul@grs+2,f
  3295  0E9F  0835               	movf	??___flmul+3,w
  3296  0EA0  3DBD               	addwfc	___flmul@grs+3,f
  3297  0EA1  0843               	movf	___flmul@temp+1,w
  3298  0EA2  00B2               	movwf	??___flmul
  3299  0EA3  01B3               	clrf	??___flmul+1
  3300  0EA4  01B4               	clrf	??___flmul+2
  3301  0EA5  01B5               	clrf	??___flmul+3
  3302  0EA6  0832               	movf	??___flmul,w
  3303  0EA7  07BE               	addwf	___flmul@prod,f
  3304  0EA8  0833               	movf	??___flmul+1,w
  3305  0EA9  3DBF               	addwfc	___flmul@prod+1,f
  3306  0EAA  0834               	movf	??___flmul+2,w
  3307  0EAB  3DC0               	addwfc	___flmul@prod+2,f
  3308  0EAC  0835               	movf	??___flmul+3,w
  3309  0EAD  3DC1               	addwfc	___flmul@prod+3,f
  3310  0EAE  3008               	movlw	8
  3311  0EAF                     u4165:	
  3312  0EAF  35BA               	lslf	___flmul@grs,f
  3313  0EB0  0DBB               	rlf	___flmul@grs+1,f
  3314  0EB1  0DBC               	rlf	___flmul@grs+2,f
  3315  0EB2  0DBD               	rlf	___flmul@grs+3,f
  3316  0EB3  0B89               	decfsz	9,f
  3317  0EB4  2EAF               	goto	u4165
  3318  0EB5  082B               	movf	___flmul@b+1,w
  3319  0EB6  00B2               	movwf	??___flmul
  3320  0EB7  0832               	movf	??___flmul,w
  3321  0EB8  00F1               	movwf	__Umul8_16@multiplicand
  3322  0EB9  082E               	movf	___flmul@a,w
  3323  0EBA  3187  27CB  318D   	fcall	__Umul8_16
  3324  0EBD  0872               	movf	?__Umul8_16+1,w
  3325  0EBE  00C3               	movwf	___flmul@temp+1
  3326  0EBF  0871               	movf	?__Umul8_16,w
  3327  0EC0  00C2               	movwf	___flmul@temp
  3328  0EC1  0842               	movf	___flmul@temp,w
  3329  0EC2  07BA               	addwf	___flmul@grs,f
  3330  0EC3  0843               	movf	___flmul@temp+1,w
  3331  0EC4  3DBB               	addwfc	___flmul@grs+1,f
  3332  0EC5  3000               	movlw	0
  3333  0EC6  3DBC               	addwfc	___flmul@grs+2,f
  3334  0EC7  3DBD               	addwfc	___flmul@grs+3,f
  3335  0EC8  082A               	movf	___flmul@b,w
  3336  0EC9  00B2               	movwf	??___flmul
  3337  0ECA  0832               	movf	??___flmul,w
  3338  0ECB  00F1               	movwf	__Umul8_16@multiplicand
  3339  0ECC  082F               	movf	___flmul@a+1,w
  3340  0ECD  3187  27CB  318D   	fcall	__Umul8_16
  3341  0ED0  0872               	movf	?__Umul8_16+1,w
  3342  0ED1  00C3               	movwf	___flmul@temp+1
  3343  0ED2  0871               	movf	?__Umul8_16,w
  3344  0ED3  00C2               	movwf	___flmul@temp
  3345  0ED4  0842               	movf	___flmul@temp,w
  3346  0ED5  07BA               	addwf	___flmul@grs,f
  3347  0ED6  0843               	movf	___flmul@temp+1,w
  3348  0ED7  3DBB               	addwfc	___flmul@grs+1,f
  3349  0ED8  3000               	movlw	0
  3350  0ED9  3DBC               	addwfc	___flmul@grs+2,f
  3351  0EDA  3DBD               	addwfc	___flmul@grs+3,f
  3352  0EDB  3008               	movlw	8
  3353  0EDC                     u4175:	
  3354  0EDC  35BA               	lslf	___flmul@grs,f
  3355  0EDD  0DBB               	rlf	___flmul@grs+1,f
  3356  0EDE  0DBC               	rlf	___flmul@grs+2,f
  3357  0EDF  0DBD               	rlf	___flmul@grs+3,f
  3358  0EE0  0B89               	decfsz	9,f
  3359  0EE1  2EDC               	goto	u4175
  3360  0EE2  082A               	movf	___flmul@b,w
  3361  0EE3  00B2               	movwf	??___flmul
  3362  0EE4  0832               	movf	??___flmul,w
  3363  0EE5  00F1               	movwf	__Umul8_16@multiplicand
  3364  0EE6  082E               	movf	___flmul@a,w
  3365  0EE7  3187  27CB  318D   	fcall	__Umul8_16
  3366  0EEA  0872               	movf	?__Umul8_16+1,w
  3367  0EEB  00C3               	movwf	___flmul@temp+1
  3368  0EEC  0871               	movf	?__Umul8_16,w
  3369  0EED  00C2               	movwf	___flmul@temp
  3370  0EEE  0842               	movf	___flmul@temp,w
  3371  0EEF  07BA               	addwf	___flmul@grs,f
  3372  0EF0  0843               	movf	___flmul@temp+1,w
  3373  0EF1  3DBB               	addwfc	___flmul@grs+1,f
  3374  0EF2  3000               	movlw	0
  3375  0EF3  3DBC               	addwfc	___flmul@grs+2,f
  3376  0EF4  3DBD               	addwfc	___flmul@grs+3,f
  3377  0EF5  082B               	movf	___flmul@b+1,w
  3378  0EF6  00B2               	movwf	??___flmul
  3379  0EF7  0832               	movf	??___flmul,w
  3380  0EF8  00F1               	movwf	__Umul8_16@multiplicand
  3381  0EF9  0830               	movf	___flmul@a+2,w
  3382  0EFA  3187  27CB  318D   	fcall	__Umul8_16
  3383  0EFD  0872               	movf	?__Umul8_16+1,w
  3384  0EFE  00C3               	movwf	___flmul@temp+1
  3385  0EFF  0871               	movf	?__Umul8_16,w
  3386  0F00  00C2               	movwf	___flmul@temp
  3387  0F01  0842               	movf	___flmul@temp,w
  3388  0F02  07BE               	addwf	___flmul@prod,f
  3389  0F03  0843               	movf	___flmul@temp+1,w
  3390  0F04  3DBF               	addwfc	___flmul@prod+1,f
  3391  0F05  3000               	movlw	0
  3392  0F06  3DC0               	addwfc	___flmul@prod+2,f
  3393  0F07  3DC1               	addwfc	___flmul@prod+3,f
  3394  0F08  082C               	movf	___flmul@b+2,w
  3395  0F09  00B2               	movwf	??___flmul
  3396  0F0A  0832               	movf	??___flmul,w
  3397  0F0B  00F1               	movwf	__Umul8_16@multiplicand
  3398  0F0C  082F               	movf	___flmul@a+1,w
  3399  0F0D  3187  27CB  318D   	fcall	__Umul8_16
  3400  0F10  0872               	movf	?__Umul8_16+1,w
  3401  0F11  00C3               	movwf	___flmul@temp+1
  3402  0F12  0871               	movf	?__Umul8_16,w
  3403  0F13  00C2               	movwf	___flmul@temp
  3404  0F14  0842               	movf	___flmul@temp,w
  3405  0F15  07BE               	addwf	___flmul@prod,f
  3406  0F16  0843               	movf	___flmul@temp+1,w
  3407  0F17  3DBF               	addwfc	___flmul@prod+1,f
  3408  0F18  3000               	movlw	0
  3409  0F19  3DC0               	addwfc	___flmul@prod+2,f
  3410  0F1A  3DC1               	addwfc	___flmul@prod+3,f
  3411  0F1B  082C               	movf	___flmul@b+2,w
  3412  0F1C  00B2               	movwf	??___flmul
  3413  0F1D  0832               	movf	??___flmul,w
  3414  0F1E  00F1               	movwf	__Umul8_16@multiplicand
  3415  0F1F  0830               	movf	___flmul@a+2,w
  3416  0F20  3187  27CB  318D   	fcall	__Umul8_16
  3417  0F23  0872               	movf	?__Umul8_16+1,w
  3418  0F24  00C3               	movwf	___flmul@temp+1
  3419  0F25  0871               	movf	?__Umul8_16,w
  3420  0F26  00C2               	movwf	___flmul@temp
  3421  0F27  0842               	movf	___flmul@temp,w
  3422  0F28  00B2               	movwf	??___flmul
  3423  0F29  0843               	movf	___flmul@temp+1,w
  3424  0F2A  00B3               	movwf	??___flmul+1
  3425  0F2B  01B4               	clrf	??___flmul+2
  3426  0F2C  01B5               	clrf	??___flmul+3
  3427  0F2D  3008               	movlw	8
  3428  0F2E                     u4185:	
  3429  0F2E  35B2               	lslf	??___flmul,f
  3430  0F2F  0DB3               	rlf	??___flmul+1,f
  3431  0F30  0DB4               	rlf	??___flmul+2,f
  3432  0F31  0DB5               	rlf	??___flmul+3,f
  3433  0F32  0B89               	decfsz	9,f
  3434  0F33  2F2E               	goto	u4185
  3435  0F34  0832               	movf	??___flmul,w
  3436  0F35  07BE               	addwf	___flmul@prod,f
  3437  0F36  0833               	movf	??___flmul+1,w
  3438  0F37  3DBF               	addwfc	___flmul@prod+1,f
  3439  0F38  0834               	movf	??___flmul+2,w
  3440  0F39  3DC0               	addwfc	___flmul@prod+2,f
  3441  0F3A  0835               	movf	??___flmul+3,w
  3442  0F3B  3DC1               	addwfc	___flmul@prod+3,f
  3443  0F3C  083D               	movf	___flmul@grs+3,w
  3444  0F3D  00B2               	movwf	??___flmul
  3445  0F3E  01B3               	clrf	??___flmul+1
  3446  0F3F  01B4               	clrf	??___flmul+2
  3447  0F40  01B5               	clrf	??___flmul+3
  3448  0F41  0832               	movf	??___flmul,w
  3449  0F42  07BE               	addwf	___flmul@prod,f
  3450  0F43  0833               	movf	??___flmul+1,w
  3451  0F44  3DBF               	addwfc	___flmul@prod+1,f
  3452  0F45  0834               	movf	??___flmul+2,w
  3453  0F46  3DC0               	addwfc	___flmul@prod+2,f
  3454  0F47  0835               	movf	??___flmul+3,w
  3455  0F48  3DC1               	addwfc	___flmul@prod+3,f
  3456  0F49  3008               	movlw	8
  3457  0F4A                     u4195:	
  3458  0F4A  35BA               	lslf	___flmul@grs,f
  3459  0F4B  0DBB               	rlf	___flmul@grs+1,f
  3460  0F4C  0DBC               	rlf	___flmul@grs+2,f
  3461  0F4D  0DBD               	rlf	___flmul@grs+3,f
  3462  0F4E  0B89               	decfsz	9,f
  3463  0F4F  2F4A               	goto	u4195
  3464  0F50  0839               	movf	___flmul@bexp,w
  3465  0F51  0738               	addwf	___flmul@aexp,w
  3466  0F52  00B2               	movwf	??___flmul
  3467  0F53  01B3               	clrf	??___flmul+1
  3468  0F54  0DB3               	rlf	??___flmul+1,f
  3469  0F55  0832               	movf	??___flmul,w
  3470  0F56  3E82               	addlw	130
  3471  0F57  00C2               	movwf	___flmul@temp
  3472  0F58  30FF               	movlw	255
  3473  0F59  3D33               	addwfc	??___flmul+1,w
  3474  0F5A  00C3               	movwf	___flmul@temp+1
  3475  0F5B                     l3101:	
  3476  0F5B  1BC0               	btfsc	___flmul@prod+2,7
  3477  0F5C  2F72               	goto	l3103
  3478  0F5D  3001               	movlw	1
  3479  0F5E                     u4205:	
  3480  0F5E  35BE               	lslf	___flmul@prod,f
  3481  0F5F  0DBF               	rlf	___flmul@prod+1,f
  3482  0F60  0DC0               	rlf	___flmul@prod+2,f
  3483  0F61  0DC1               	rlf	___flmul@prod+3,f
  3484  0F62  0B89               	decfsz	9,f
  3485  0F63  2F5E               	goto	u4205
  3486  0F64  1BBD               	btfsc	___flmul@grs+3,7
  3487  0F65  143E               	bsf	___flmul@prod,0
  3488  0F66  3001               	movlw	1
  3489  0F67                     u4225:	
  3490  0F67  35BA               	lslf	___flmul@grs,f
  3491  0F68  0DBB               	rlf	___flmul@grs+1,f
  3492  0F69  0DBC               	rlf	___flmul@grs+2,f
  3493  0F6A  0DBD               	rlf	___flmul@grs+3,f
  3494  0F6B  0B89               	decfsz	9,f
  3495  0F6C  2F67               	goto	u4225
  3496  0F6D  30FF               	movlw	255
  3497  0F6E  07C2               	addwf	___flmul@temp,f
  3498  0F6F  30FF               	movlw	255
  3499  0F70  3DC3               	addwfc	___flmul@temp+1,f
  3500  0F71  2F5B               	goto	l3101
  3501  0F72                     l3103:	
  3502  0F72  01B8               	clrf	___flmul@aexp
  3503  0F73  1FBD               	btfss	___flmul@grs+3,7
  3504  0F74  2F8B               	goto	l3113
  3505  0F75  30FF               	movlw	255
  3506  0F76  053A               	andwf	___flmul@grs,w
  3507  0F77  00B2               	movwf	??___flmul
  3508  0F78  30FF               	movlw	255
  3509  0F79  053B               	andwf	___flmul@grs+1,w
  3510  0F7A  00B3               	movwf	??___flmul+1
  3511  0F7B  30FF               	movlw	255
  3512  0F7C  053C               	andwf	___flmul@grs+2,w
  3513  0F7D  00B4               	movwf	??___flmul+2
  3514  0F7E  307F               	movlw	127
  3515  0F7F  053D               	andwf	___flmul@grs+3,w
  3516  0F80  00B5               	movwf	??___flmul+3
  3517  0F81  0835               	movf	??___flmul+3,w
  3518  0F82  0434               	iorwf	??___flmul+2,w
  3519  0F83  0433               	iorwf	??___flmul+1,w
  3520  0F84  0432               	iorwf	??___flmul,w
  3521  0F85  1903               	skipnz
  3522  0F86  183E               	btfsc	___flmul@prod,0
  3523  0F87  2F89               	goto	l3109
  3524  0F88  2F8B               	goto	l3113
  3525  0F89                     l3109:	
  3526  0F89  01B8               	clrf	___flmul@aexp
  3527  0F8A  0AB8               	incf	___flmul@aexp,f
  3528  0F8B                     l3113:	
  3529  0F8B  0838               	movf	___flmul@aexp,w
  3530  0F8C  1903               	btfsc	3,2
  3531  0F8D  2FB4               	goto	l3123
  3532  0F8E  3001               	movlw	1
  3533  0F8F  07BE               	addwf	___flmul@prod,f
  3534  0F90  3000               	movlw	0
  3535  0F91  3DBF               	addwfc	___flmul@prod+1,f
  3536  0F92  3000               	movlw	0
  3537  0F93  3DC0               	addwfc	___flmul@prod+2,f
  3538  0F94  3000               	movlw	0
  3539  0F95  3DC1               	addwfc	___flmul@prod+3,f
  3540  0F96  1C41               	btfss	___flmul@prod+3,0
  3541  0F97  2FB4               	goto	l3123
  3542  0F98  083E               	movf	___flmul@prod,w
  3543  0F99  00B2               	movwf	??___flmul
  3544  0F9A  083F               	movf	___flmul@prod+1,w
  3545  0F9B  00B3               	movwf	??___flmul+1
  3546  0F9C  0840               	movf	___flmul@prod+2,w
  3547  0F9D  00B4               	movwf	??___flmul+2
  3548  0F9E  0841               	movf	___flmul@prod+3,w
  3549  0F9F  00B5               	movwf	??___flmul+3
  3550  0FA0  3001               	movlw	1
  3551  0FA1  00B6               	movwf	??___flmul+4
  3552  0FA2                     u4295:	
  3553  0FA2  37B5               	asrf	??___flmul+3,f
  3554  0FA3  0CB4               	rrf	??___flmul+2,f
  3555  0FA4  0CB3               	rrf	??___flmul+1,f
  3556  0FA5  0CB2               	rrf	??___flmul,f
  3557  0FA6  0BB6               	decfsz	??___flmul+4,f
  3558  0FA7  2FA2               	goto	u4295
  3559  0FA8  0835               	movf	??___flmul+3,w
  3560  0FA9  00C1               	movwf	___flmul@prod+3
  3561  0FAA  0834               	movf	??___flmul+2,w
  3562  0FAB  00C0               	movwf	___flmul@prod+2
  3563  0FAC  0833               	movf	??___flmul+1,w
  3564  0FAD  00BF               	movwf	___flmul@prod+1
  3565  0FAE  0832               	movf	??___flmul,w
  3566  0FAF  00BE               	movwf	___flmul@prod
  3567  0FB0  3001               	movlw	1
  3568  0FB1  07C2               	addwf	___flmul@temp,f
  3569  0FB2  3000               	movlw	0
  3570  0FB3  3DC3               	addwfc	___flmul@temp+1,f
  3571  0FB4                     l3123:	
  3572  0FB4  0843               	movf	___flmul@temp+1,w
  3573  0FB5  3A80               	xorlw	128
  3574  0FB6  00B2               	movwf	??___flmul
  3575  0FB7  3080               	movlw	128
  3576  0FB8  0232               	subwf	??___flmul,w
  3577  0FB9  1D03               	skipz
  3578  0FBA  2FBD               	goto	u4305
  3579  0FBB  30FF               	movlw	255
  3580  0FBC  0242               	subwf	___flmul@temp,w
  3581  0FBD                     u4305:	
  3582  0FBD  1C03               	skipc
  3583  0FBE  2FC9               	goto	l3127
  3584  0FBF  307F               	movlw	127
  3585  0FC0  0020               	movlb	0	; select bank0
  3586  0FC1  00C1               	movwf	___flmul@prod+3
  3587  0FC2  3080               	movlw	128
  3588  0FC3  00C0               	movwf	___flmul@prod+2
  3589  0FC4  3000               	movlw	0
  3590  0FC5  00BF               	movwf	___flmul@prod+1
  3591  0FC6  3000               	movlw	0
  3592  0FC7  00BE               	movwf	___flmul@prod
  3593  0FC8  2FF3               	goto	l702
  3594  0FC9                     l3127:	
  3595  0FC9  0020               	movlb	0	; select bank0
  3596  0FCA  0843               	movf	___flmul@temp+1,w
  3597  0FCB  3A80               	xorlw	128
  3598  0FCC  00B2               	movwf	??___flmul
  3599  0FCD  3080               	movlw	128
  3600  0FCE  0232               	subwf	??___flmul,w
  3601  0FCF  1D03               	skipz
  3602  0FD0  2FD3               	goto	u4315
  3603  0FD1  3001               	movlw	1
  3604  0FD2  0242               	subwf	___flmul@temp,w
  3605  0FD3                     u4315:	
  3606  0FD3  1803               	skipnc
  3607  0FD4  2FE0               	goto	l3133
  3608  0FD5  3000               	movlw	0
  3609  0FD6  0020               	movlb	0	; select bank0
  3610  0FD7  00C1               	movwf	___flmul@prod+3
  3611  0FD8  3000               	movlw	0
  3612  0FD9  00C0               	movwf	___flmul@prod+2
  3613  0FDA  3000               	movlw	0
  3614  0FDB  00BF               	movwf	___flmul@prod+1
  3615  0FDC  3000               	movlw	0
  3616  0FDD  00BE               	movwf	___flmul@prod
  3617  0FDE  01B7               	clrf	___flmul@sign
  3618  0FDF  2FF3               	goto	l702
  3619  0FE0                     l3133:	
  3620  0FE0  0020               	movlb	0	; select bank0
  3621  0FE1  0842               	movf	___flmul@temp,w
  3622  0FE2  00B2               	movwf	??___flmul
  3623  0FE3  0832               	movf	??___flmul,w
  3624  0FE4  00B9               	movwf	___flmul@bexp
  3625  0FE5  30FF               	movlw	255
  3626  0FE6  05BE               	andwf	___flmul@prod,f
  3627  0FE7  30FF               	movlw	255
  3628  0FE8  05BF               	andwf	___flmul@prod+1,f
  3629  0FE9  307F               	movlw	127
  3630  0FEA  05C0               	andwf	___flmul@prod+2,f
  3631  0FEB  3000               	movlw	0
  3632  0FEC  05C1               	andwf	___flmul@prod+3,f
  3633  0FED  1839               	btfsc	___flmul@bexp,0
  3634  0FEE  17C0               	bsf	___flmul@prod+2,7
  3635  0FEF  3639               	lsrf	___flmul@bexp,w
  3636  0FF0  00B2               	movwf	??___flmul
  3637  0FF1  0832               	movf	??___flmul,w
  3638  0FF2  00C1               	movwf	___flmul@prod+3
  3639  0FF3                     l702:	
  3640  0FF3  0837               	movf	___flmul@sign,w
  3641  0FF4  00B2               	movwf	??___flmul
  3642  0FF5  0832               	movf	??___flmul,w
  3643  0FF6  04C1               	iorwf	___flmul@prod+3,f
  3644  0FF7  0841               	movf	___flmul@prod+3,w
  3645  0FF8  00AD               	movwf	?___flmul+3
  3646  0FF9  0840               	movf	___flmul@prod+2,w
  3647  0FFA  00AC               	movwf	?___flmul+2
  3648  0FFB  083F               	movf	___flmul@prod+1,w
  3649  0FFC  00AB               	movwf	?___flmul+1
  3650  0FFD  083E               	movf	___flmul@prod,w
  3651  0FFE  00AA               	movwf	?___flmul
  3652  0FFF  0008               	return
  3653  1000                     __end_of___flmul:	
  3654                           
  3655                           	psect	text7
  3656  07CB                     __ptext7:	
  3657 ;; *************** function __Umul8_16 *****************
  3658 ;; Defined at:
  3659 ;;		line 4 in file "C:\Program Files (x86)\Microchip\xc8\v2.10\pic\sources\c90\common\Umul8_16.c"
  3660 ;; Parameters:    Size  Location     Type
  3661 ;;  multiplier      1    wreg     unsigned char 
  3662 ;;  multiplicand    1    1[COMMON] unsigned char 
  3663 ;; Auto vars:     Size  Location     Type
  3664 ;;  multiplier      1    9[COMMON] unsigned char 
  3665 ;;  word_mpld       2    7[COMMON] unsigned int 
  3666 ;;  product         2    5[COMMON] unsigned int 
  3667 ;; Return value:  Size  Location     Type
  3668 ;;                  2    1[COMMON] unsigned int 
  3669 ;; Registers used:
  3670 ;;		wreg, status,2, status,0
  3671 ;; Tracked objects:
  3672 ;;		On entry : 1F/0
  3673 ;;		On exit  : 1F/0
  3674 ;;		Unchanged: 1F/0
  3675 ;; Data sizes:     COMMON   BANK0   BANK1   BANK2
  3676 ;;      Params:         2       0       0       0
  3677 ;;      Locals:         5       0       0       0
  3678 ;;      Temps:          2       0       0       0
  3679 ;;      Totals:         9       0       0       0
  3680 ;;Total ram usage:        9 bytes
  3681 ;; Hardware stack levels used:    1
  3682 ;; Hardware stack levels required when called:    1
  3683 ;; This function calls:
  3684 ;;		Nothing
  3685 ;; This function is called by:
  3686 ;;		___flmul
  3687 ;; This function uses a non-reentrant model
  3688 ;;
  3689                           
  3690                           
  3691                           ;psect for function __Umul8_16
  3692  07CB                     __Umul8_16:	
  3693                           
  3694                           ;incstack = 0
  3695                           ; Regs used in __Umul8_16: [wreg+status,2+status,0]
  3696                           ;__Umul8_16@multiplier stored from wreg
  3697  07CB  00F9               	movwf	__Umul8_16@multiplier
  3698  07CC  01F5               	clrf	__Umul8_16@product
  3699  07CD  01F6               	clrf	__Umul8_16@product+1
  3700  07CE  0871               	movf	__Umul8_16@multiplicand,w
  3701  07CF  00F3               	movwf	??__Umul8_16
  3702  07D0  01F4               	clrf	??__Umul8_16+1
  3703  07D1  0873               	movf	??__Umul8_16,w
  3704  07D2  00F7               	movwf	__Umul8_16@word_mpld
  3705  07D3  0874               	movf	??__Umul8_16+1,w
  3706  07D4  00F8               	movwf	__Umul8_16@word_mpld+1
  3707  07D5                     l2511:	
  3708  07D5  1C79               	btfss	__Umul8_16@multiplier,0
  3709  07D6  2FDB               	goto	l769
  3710  07D7  0877               	movf	__Umul8_16@word_mpld,w
  3711  07D8  07F5               	addwf	__Umul8_16@product,f
  3712  07D9  0878               	movf	__Umul8_16@word_mpld+1,w
  3713  07DA  3DF6               	addwfc	__Umul8_16@product+1,f
  3714  07DB                     l769:	
  3715  07DB  3001               	movlw	1
  3716  07DC                     u3115:	
  3717  07DC  35F7               	lslf	__Umul8_16@word_mpld,f
  3718  07DD  0DF8               	rlf	__Umul8_16@word_mpld+1,f
  3719  07DE  0B89               	decfsz	9,f
  3720  07DF  2FDC               	goto	u3115
  3721  07E0  1003               	clrc
  3722  07E1  0CF9               	rrf	__Umul8_16@multiplier,f
  3723  07E2  0879               	movf	__Umul8_16@multiplier,w
  3724  07E3  1D03               	btfss	3,2
  3725  07E4  2FD5               	goto	l2511
  3726  07E5  0876               	movf	__Umul8_16@product+1,w
  3727  07E6  00F2               	movwf	?__Umul8_16+1
  3728  07E7  0875               	movf	__Umul8_16@product,w
  3729  07E8  00F1               	movwf	?__Umul8_16
  3730  07E9  0008               	return
  3731  07EA                     __end_of__Umul8_16:	
  3732                           
  3733                           	psect	text8
  3734  0A72                     __ptext8:	
  3735 ;; *************** function ___fldiv *****************
  3736 ;; Defined at:
  3737 ;;		line 8 in file "C:\Program Files (x86)\Microchip\xc8\v2.10\pic\sources\c90\common\sprcdiv.c"
  3738 ;; Parameters:    Size  Location     Type
  3739 ;;  a               4   36[BANK0 ] unsigned int 
  3740 ;;  b               4   40[BANK0 ] unsigned int 
  3741 ;; Auto vars:     Size  Location     Type
  3742 ;;  grs             4   56[BANK0 ] unsigned long 
  3743 ;;  rem             4   49[BANK0 ] unsigned long 
  3744 ;;  new_exp         2   54[BANK0 ] int 
  3745 ;;  aexp            1   61[BANK0 ] unsigned char 
  3746 ;;  bexp            1   60[BANK0 ] unsigned char 
  3747 ;;  sign            1   53[BANK0 ] unsigned char 
  3748 ;; Return value:  Size  Location     Type
  3749 ;;                  4   36[BANK0 ] unsigned char 
  3750 ;; Registers used:
  3751 ;;		wreg, status,2, status,0
  3752 ;; Tracked objects:
  3753 ;;		On entry : 1F/0
  3754 ;;		On exit  : 1F/0
  3755 ;;		Unchanged: 0/0
  3756 ;; Data sizes:     COMMON   BANK0   BANK1   BANK2
  3757 ;;      Params:         0       8       0       0
  3758 ;;      Locals:         0      13       0       0
  3759 ;;      Temps:          0       5       0       0
  3760 ;;      Totals:         0      26       0       0
  3761 ;;Total ram usage:       26 bytes
  3762 ;; Hardware stack levels used:    1
  3763 ;; Hardware stack levels required when called:    1
  3764 ;; This function calls:
  3765 ;;		Nothing
  3766 ;; This function is called by:
  3767 ;;		_main
  3768 ;; This function uses a non-reentrant model
  3769 ;;
  3770                           
  3771                           
  3772                           ;psect for function ___fldiv
  3773  0A72                     ___fldiv:	
  3774                           
  3775                           ;incstack = 0
  3776                           ; Regs used in ___fldiv: [wreg+status,2+status,0]
  3777  0A72  084B               	movf	___fldiv@b+3,w
  3778  0A73  3980               	andlw	128
  3779  0A74  00CC               	movwf	??___fldiv
  3780  0A75  084C               	movf	??___fldiv,w
  3781  0A76  00D5               	movwf	___fldiv@sign
  3782  0A77  354B               	lslf	___fldiv@b+3,w
  3783  0A78  00CC               	movwf	??___fldiv
  3784  0A79  084C               	movf	??___fldiv,w
  3785  0A7A  00DC               	movwf	___fldiv@bexp
  3786  0A7B  1BCA               	btfsc	___fldiv@b+2,7
  3787  0A7C  145C               	bsf	___fldiv@bexp,0
  3788  0A7D  085C               	movf	___fldiv@bexp,w
  3789  0A7E  1903               	btfsc	3,2
  3790  0A7F  2A8E               	goto	l2883
  3791  0A80  0A5C               	incf	___fldiv@bexp,w
  3792  0A81  1D03               	btfss	3,2
  3793  0A82  2A8B               	goto	l2879
  3794  0A83  3000               	movlw	0
  3795  0A84  00CB               	movwf	___fldiv@b+3
  3796  0A85  3000               	movlw	0
  3797  0A86  00CA               	movwf	___fldiv@b+2
  3798  0A87  3000               	movlw	0
  3799  0A88  00C9               	movwf	___fldiv@b+1
  3800  0A89  3000               	movlw	0
  3801  0A8A  00C8               	movwf	___fldiv@b
  3802  0A8B                     l2879:	
  3803  0A8B  17CA               	bsf	___fldiv@b+2,7
  3804  0A8C  01CB               	clrf	___fldiv@b+3
  3805  0A8D  2A96               	goto	l2885
  3806  0A8E                     l2883:	
  3807  0A8E  3000               	movlw	0
  3808  0A8F  00CB               	movwf	___fldiv@b+3
  3809  0A90  3000               	movlw	0
  3810  0A91  00CA               	movwf	___fldiv@b+2
  3811  0A92  3000               	movlw	0
  3812  0A93  00C9               	movwf	___fldiv@b+1
  3813  0A94  3000               	movlw	0
  3814  0A95  00C8               	movwf	___fldiv@b
  3815  0A96                     l2885:	
  3816  0A96  0847               	movf	___fldiv@a+3,w
  3817  0A97  3980               	andlw	128
  3818  0A98  00CC               	movwf	??___fldiv
  3819  0A99  084C               	movf	??___fldiv,w
  3820  0A9A  06D5               	xorwf	___fldiv@sign,f
  3821  0A9B  3547               	lslf	___fldiv@a+3,w
  3822  0A9C  00CC               	movwf	??___fldiv
  3823  0A9D  084C               	movf	??___fldiv,w
  3824  0A9E  00DD               	movwf	___fldiv@aexp
  3825  0A9F  1BC6               	btfsc	___fldiv@a+2,7
  3826  0AA0  145D               	bsf	___fldiv@aexp,0
  3827  0AA1  085D               	movf	___fldiv@aexp,w
  3828  0AA2  1903               	btfsc	3,2
  3829  0AA3  2AB2               	goto	l2903
  3830  0AA4  0A5D               	incf	___fldiv@aexp,w
  3831  0AA5  1D03               	btfss	3,2
  3832  0AA6  2AAF               	goto	l2899
  3833  0AA7  3000               	movlw	0
  3834  0AA8  00C7               	movwf	___fldiv@a+3
  3835  0AA9  3000               	movlw	0
  3836  0AAA  00C6               	movwf	___fldiv@a+2
  3837  0AAB  3000               	movlw	0
  3838  0AAC  00C5               	movwf	___fldiv@a+1
  3839  0AAD  3000               	movlw	0
  3840  0AAE  00C4               	movwf	___fldiv@a
  3841  0AAF                     l2899:	
  3842  0AAF  17C6               	bsf	___fldiv@a+2,7
  3843  0AB0  01C7               	clrf	___fldiv@a+3
  3844  0AB1  2ABA               	goto	l650
  3845  0AB2                     l2903:	
  3846  0AB2  3000               	movlw	0
  3847  0AB3  00C7               	movwf	___fldiv@a+3
  3848  0AB4  3000               	movlw	0
  3849  0AB5  00C6               	movwf	___fldiv@a+2
  3850  0AB6  3000               	movlw	0
  3851  0AB7  00C5               	movwf	___fldiv@a+1
  3852  0AB8  3000               	movlw	0
  3853  0AB9  00C4               	movwf	___fldiv@a
  3854  0ABA                     l650:	
  3855  0ABA  0847               	movf	___fldiv@a+3,w
  3856  0ABB  0446               	iorwf	___fldiv@a+2,w
  3857  0ABC  0445               	iorwf	___fldiv@a+1,w
  3858  0ABD  0444               	iorwf	___fldiv@a,w
  3859  0ABE  1D03               	skipz
  3860  0ABF  2AD9               	goto	l2913
  3861  0AC0  3000               	movlw	0
  3862  0AC1  00CB               	movwf	___fldiv@b+3
  3863  0AC2  3000               	movlw	0
  3864  0AC3  00CA               	movwf	___fldiv@b+2
  3865  0AC4  3000               	movlw	0
  3866  0AC5  00C9               	movwf	___fldiv@b+1
  3867  0AC6  3000               	movlw	0
  3868  0AC7  00C8               	movwf	___fldiv@b
  3869  0AC8  3080               	movlw	128
  3870  0AC9  04CA               	iorwf	___fldiv@b+2,f
  3871  0ACA  307F               	movlw	127
  3872  0ACB  04CB               	iorwf	___fldiv@b+3,f
  3873  0ACC                     L2:	
  3874  0ACC  0855               	movf	___fldiv@sign,w
  3875  0ACD  00CC               	movwf	??___fldiv
  3876  0ACE  084C               	movf	??___fldiv,w
  3877  0ACF  04CB               	iorwf	___fldiv@b+3,f
  3878  0AD0  084B               	movf	___fldiv@b+3,w
  3879  0AD1  00C7               	movwf	?___fldiv+3
  3880  0AD2  084A               	movf	___fldiv@b+2,w
  3881  0AD3  00C6               	movwf	?___fldiv+2
  3882  0AD4  0849               	movf	___fldiv@b+1,w
  3883  0AD5  00C5               	movwf	?___fldiv+1
  3884  0AD6  0848               	movf	___fldiv@b,w
  3885  0AD7  00C4               	movwf	?___fldiv
  3886  0AD8  0008               	return
  3887  0AD9                     l2913:	
  3888  0AD9  085C               	movf	___fldiv@bexp,w
  3889  0ADA  1D03               	btfss	3,2
  3890  0ADB  2AE5               	goto	l2919
  3891  0ADC  3000               	movlw	0
  3892  0ADD  00C7               	movwf	?___fldiv+3
  3893  0ADE  3000               	movlw	0
  3894  0ADF  00C6               	movwf	?___fldiv+2
  3895  0AE0  3000               	movlw	0
  3896  0AE1  00C5               	movwf	?___fldiv+1
  3897  0AE2  3000               	movlw	0
  3898  0AE3  00C4               	movwf	?___fldiv
  3899  0AE4  0008               	return
  3900  0AE5                     l2919:	
  3901  0AE5  085C               	movf	___fldiv@bexp,w
  3902  0AE6  00CC               	movwf	??___fldiv
  3903  0AE7  01CD               	clrf	??___fldiv+1
  3904  0AE8  084D               	movf	??___fldiv+1,w
  3905  0AE9  00CF               	movwf	??___fldiv+3
  3906  0AEA  085D               	movf	___fldiv@aexp,w
  3907  0AEB  024C               	subwf	??___fldiv,w
  3908  0AEC  00CE               	movwf	??___fldiv+2
  3909  0AED  1C03               	skipc
  3910  0AEE  03CF               	decf	??___fldiv+3,f
  3911  0AEF  084E               	movf	??___fldiv+2,w
  3912  0AF0  3E7F               	addlw	127
  3913  0AF1  00D6               	movwf	___fldiv@new_exp
  3914  0AF2  3000               	movlw	0
  3915  0AF3  3D4F               	addwfc	??___fldiv+3,w
  3916  0AF4  00D7               	movwf	___fldiv@new_exp+1
  3917  0AF5  084B               	movf	___fldiv@b+3,w
  3918  0AF6  00D4               	movwf	___fldiv@rem+3
  3919  0AF7  084A               	movf	___fldiv@b+2,w
  3920  0AF8  00D3               	movwf	___fldiv@rem+2
  3921  0AF9  0849               	movf	___fldiv@b+1,w
  3922  0AFA  00D2               	movwf	___fldiv@rem+1
  3923  0AFB  0848               	movf	___fldiv@b,w
  3924  0AFC  00D1               	movwf	___fldiv@rem
  3925  0AFD  3000               	movlw	0
  3926  0AFE  00CB               	movwf	___fldiv@b+3
  3927  0AFF  3000               	movlw	0
  3928  0B00  00CA               	movwf	___fldiv@b+2
  3929  0B01  3000               	movlw	0
  3930  0B02  00C9               	movwf	___fldiv@b+1
  3931  0B03  3000               	movlw	0
  3932  0B04  00C8               	movwf	___fldiv@b
  3933  0B05  3000               	movlw	0
  3934  0B06  00DB               	movwf	___fldiv@grs+3
  3935  0B07  3000               	movlw	0
  3936  0B08  00DA               	movwf	___fldiv@grs+2
  3937  0B09  3000               	movlw	0
  3938  0B0A  00D9               	movwf	___fldiv@grs+1
  3939  0B0B  3000               	movlw	0
  3940  0B0C  00D8               	movwf	___fldiv@grs
  3941  0B0D  01DD               	clrf	___fldiv@aexp
  3942  0B0E                     l2947:	
  3943  0B0E  301A               	movlw	26
  3944  0B0F  025D               	subwf	___fldiv@aexp,w
  3945  0B10  1803               	btfsc	3,0
  3946  0B11  2B4A               	goto	l2949
  3947  0B12  085D               	movf	___fldiv@aexp,w
  3948  0B13  1903               	btfsc	3,2
  3949  0B14  2B2C               	goto	l2939
  3950  0B15  3001               	movlw	1
  3951  0B16                     u3885:	
  3952  0B16  35D1               	lslf	___fldiv@rem,f
  3953  0B17  0DD2               	rlf	___fldiv@rem+1,f
  3954  0B18  0DD3               	rlf	___fldiv@rem+2,f
  3955  0B19  0DD4               	rlf	___fldiv@rem+3,f
  3956  0B1A  0B89               	decfsz	9,f
  3957  0B1B  2B16               	goto	u3885
  3958  0B1C  3001               	movlw	1
  3959  0B1D                     u3895:	
  3960  0B1D  35C8               	lslf	___fldiv@b,f
  3961  0B1E  0DC9               	rlf	___fldiv@b+1,f
  3962  0B1F  0DCA               	rlf	___fldiv@b+2,f
  3963  0B20  0DCB               	rlf	___fldiv@b+3,f
  3964  0B21  0B89               	decfsz	9,f
  3965  0B22  2B1D               	goto	u3895
  3966  0B23  1BDB               	btfsc	___fldiv@grs+3,7
  3967  0B24  1448               	bsf	___fldiv@b,0
  3968  0B25  3001               	movlw	1
  3969  0B26                     u3915:	
  3970  0B26  35D8               	lslf	___fldiv@grs,f
  3971  0B27  0DD9               	rlf	___fldiv@grs+1,f
  3972  0B28  0DDA               	rlf	___fldiv@grs+2,f
  3973  0B29  0DDB               	rlf	___fldiv@grs+3,f
  3974  0B2A  0B89               	decfsz	9,f
  3975  0B2B  2B26               	goto	u3915
  3976  0B2C                     l2939:	
  3977  0B2C  0847               	movf	___fldiv@a+3,w
  3978  0B2D  0254               	subwf	___fldiv@rem+3,w
  3979  0B2E  1D03               	skipz
  3980  0B2F  2B3A               	goto	u3925
  3981  0B30  0846               	movf	___fldiv@a+2,w
  3982  0B31  0253               	subwf	___fldiv@rem+2,w
  3983  0B32  1D03               	skipz
  3984  0B33  2B3A               	goto	u3925
  3985  0B34  0845               	movf	___fldiv@a+1,w
  3986  0B35  0252               	subwf	___fldiv@rem+1,w
  3987  0B36  1D03               	skipz
  3988  0B37  2B3A               	goto	u3925
  3989  0B38  0844               	movf	___fldiv@a,w
  3990  0B39  0251               	subwf	___fldiv@rem,w
  3991  0B3A                     u3925:	
  3992  0B3A  1C03               	skipc
  3993  0B3B  2B45               	goto	l2945
  3994  0B3C  175B               	bsf	___fldiv@grs+3,6
  3995  0B3D  0844               	movf	___fldiv@a,w
  3996  0B3E  02D1               	subwf	___fldiv@rem,f
  3997  0B3F  0845               	movf	___fldiv@a+1,w
  3998  0B40  3BD2               	subwfb	___fldiv@rem+1,f
  3999  0B41  0846               	movf	___fldiv@a+2,w
  4000  0B42  3BD3               	subwfb	___fldiv@rem+2,f
  4001  0B43  0847               	movf	___fldiv@a+3,w
  4002  0B44  3BD4               	subwfb	___fldiv@rem+3,f
  4003  0B45                     l2945:	
  4004  0B45  3001               	movlw	1
  4005  0B46  00CC               	movwf	??___fldiv
  4006  0B47  084C               	movf	??___fldiv,w
  4007  0B48  07DD               	addwf	___fldiv@aexp,f
  4008  0B49  2B0E               	goto	l2947
  4009  0B4A                     l2949:	
  4010  0B4A  0854               	movf	___fldiv@rem+3,w
  4011  0B4B  0453               	iorwf	___fldiv@rem+2,w
  4012  0B4C  0452               	iorwf	___fldiv@rem+1,w
  4013  0B4D  0451               	iorwf	___fldiv@rem,w
  4014  0B4E  1D03               	btfss	3,2
  4015  0B4F  1458               	bsf	___fldiv@grs,0
  4016  0B50                     l2963:	
  4017  0B50  1BCA               	btfsc	___fldiv@b+2,7
  4018  0B51  2B67               	goto	l2965
  4019  0B52  3001               	movlw	1
  4020  0B53                     u3955:	
  4021  0B53  35C8               	lslf	___fldiv@b,f
  4022  0B54  0DC9               	rlf	___fldiv@b+1,f
  4023  0B55  0DCA               	rlf	___fldiv@b+2,f
  4024  0B56  0DCB               	rlf	___fldiv@b+3,f
  4025  0B57  0B89               	decfsz	9,f
  4026  0B58  2B53               	goto	u3955
  4027  0B59  1BDB               	btfsc	___fldiv@grs+3,7
  4028  0B5A  1448               	bsf	___fldiv@b,0
  4029  0B5B  3001               	movlw	1
  4030  0B5C                     u3975:	
  4031  0B5C  35D8               	lslf	___fldiv@grs,f
  4032  0B5D  0DD9               	rlf	___fldiv@grs+1,f
  4033  0B5E  0DDA               	rlf	___fldiv@grs+2,f
  4034  0B5F  0DDB               	rlf	___fldiv@grs+3,f
  4035  0B60  0B89               	decfsz	9,f
  4036  0B61  2B5C               	goto	u3975
  4037  0B62  30FF               	movlw	255
  4038  0B63  07D6               	addwf	___fldiv@new_exp,f
  4039  0B64  30FF               	movlw	255
  4040  0B65  3DD7               	addwfc	___fldiv@new_exp+1,f
  4041  0B66  2B50               	goto	l2963
  4042  0B67                     l2965:	
  4043  0B67  01DD               	clrf	___fldiv@aexp
  4044  0B68  1FDB               	btfss	___fldiv@grs+3,7
  4045  0B69  2B80               	goto	l2975
  4046  0B6A  30FF               	movlw	255
  4047  0B6B  0558               	andwf	___fldiv@grs,w
  4048  0B6C  00CC               	movwf	??___fldiv
  4049  0B6D  30FF               	movlw	255
  4050  0B6E  0559               	andwf	___fldiv@grs+1,w
  4051  0B6F  00CD               	movwf	??___fldiv+1
  4052  0B70  30FF               	movlw	255
  4053  0B71  055A               	andwf	___fldiv@grs+2,w
  4054  0B72  00CE               	movwf	??___fldiv+2
  4055  0B73  307F               	movlw	127
  4056  0B74  055B               	andwf	___fldiv@grs+3,w
  4057  0B75  00CF               	movwf	??___fldiv+3
  4058  0B76  084F               	movf	??___fldiv+3,w
  4059  0B77  044E               	iorwf	??___fldiv+2,w
  4060  0B78  044D               	iorwf	??___fldiv+1,w
  4061  0B79  044C               	iorwf	??___fldiv,w
  4062  0B7A  1903               	skipnz
  4063  0B7B  1848               	btfsc	___fldiv@b,0
  4064  0B7C  2B7E               	goto	l2971
  4065  0B7D  2B80               	goto	l2975
  4066  0B7E                     l2971:	
  4067  0B7E  01DD               	clrf	___fldiv@aexp
  4068  0B7F  0ADD               	incf	___fldiv@aexp,f
  4069  0B80                     l2975:	
  4070  0B80  085D               	movf	___fldiv@aexp,w
  4071  0B81  1903               	btfsc	3,2
  4072  0B82  2BA9               	goto	l2985
  4073  0B83  3001               	movlw	1
  4074  0B84  07C8               	addwf	___fldiv@b,f
  4075  0B85  3000               	movlw	0
  4076  0B86  3DC9               	addwfc	___fldiv@b+1,f
  4077  0B87  3000               	movlw	0
  4078  0B88  3DCA               	addwfc	___fldiv@b+2,f
  4079  0B89  3000               	movlw	0
  4080  0B8A  3DCB               	addwfc	___fldiv@b+3,f
  4081  0B8B  1C4B               	btfss	___fldiv@b+3,0
  4082  0B8C  2BA9               	goto	l2985
  4083  0B8D  0848               	movf	___fldiv@b,w
  4084  0B8E  00CC               	movwf	??___fldiv
  4085  0B8F  0849               	movf	___fldiv@b+1,w
  4086  0B90  00CD               	movwf	??___fldiv+1
  4087  0B91  084A               	movf	___fldiv@b+2,w
  4088  0B92  00CE               	movwf	??___fldiv+2
  4089  0B93  084B               	movf	___fldiv@b+3,w
  4090  0B94  00CF               	movwf	??___fldiv+3
  4091  0B95  3001               	movlw	1
  4092  0B96  00D0               	movwf	??___fldiv+4
  4093  0B97                     u4045:	
  4094  0B97  37CF               	asrf	??___fldiv+3,f
  4095  0B98  0CCE               	rrf	??___fldiv+2,f
  4096  0B99  0CCD               	rrf	??___fldiv+1,f
  4097  0B9A  0CCC               	rrf	??___fldiv,f
  4098  0B9B  0BD0               	decfsz	??___fldiv+4,f
  4099  0B9C  2B97               	goto	u4045
  4100  0B9D  084F               	movf	??___fldiv+3,w
  4101  0B9E  00CB               	movwf	___fldiv@b+3
  4102  0B9F  084E               	movf	??___fldiv+2,w
  4103  0BA0  00CA               	movwf	___fldiv@b+2
  4104  0BA1  084D               	movf	??___fldiv+1,w
  4105  0BA2  00C9               	movwf	___fldiv@b+1
  4106  0BA3  084C               	movf	??___fldiv,w
  4107  0BA4  00C8               	movwf	___fldiv@b
  4108  0BA5  3001               	movlw	1
  4109  0BA6  07D6               	addwf	___fldiv@new_exp,f
  4110  0BA7  3000               	movlw	0
  4111  0BA8  3DD7               	addwfc	___fldiv@new_exp+1,f
  4112  0BA9                     l2985:	
  4113  0BA9  0857               	movf	___fldiv@new_exp+1,w
  4114  0BAA  3A80               	xorlw	128
  4115  0BAB  00CC               	movwf	??___fldiv
  4116  0BAC  3080               	movlw	128
  4117  0BAD  024C               	subwf	??___fldiv,w
  4118  0BAE  1D03               	skipz
  4119  0BAF  2BB2               	goto	u4055
  4120  0BB0  30FF               	movlw	255
  4121  0BB1  0256               	subwf	___fldiv@new_exp,w
  4122  0BB2                     u4055:	
  4123  0BB2  1C03               	skipc
  4124  0BB3  2BC1               	goto	l671
  4125  0BB4  30FF               	movlw	255
  4126  0BB5  0020               	movlb	0	; select bank0
  4127  0BB6  00D6               	movwf	___fldiv@new_exp
  4128  0BB7  3000               	movlw	0
  4129  0BB8  00D7               	movwf	___fldiv@new_exp+1
  4130  0BB9  3000               	movlw	0
  4131  0BBA  00CB               	movwf	___fldiv@b+3
  4132  0BBB  3000               	movlw	0
  4133  0BBC  00CA               	movwf	___fldiv@b+2
  4134  0BBD  3000               	movlw	0
  4135  0BBE  00C9               	movwf	___fldiv@b+1
  4136  0BBF  3000               	movlw	0
  4137  0BC0  00C8               	movwf	___fldiv@b
  4138  0BC1                     l671:	
  4139  0BC1  0020               	movlb	0	; select bank0
  4140  0BC2  0857               	movf	___fldiv@new_exp+1,w
  4141  0BC3  3A80               	xorlw	128
  4142  0BC4  00CC               	movwf	??___fldiv
  4143  0BC5  3080               	movlw	128
  4144  0BC6  024C               	subwf	??___fldiv,w
  4145  0BC7  1D03               	skipz
  4146  0BC8  2BCB               	goto	u4065
  4147  0BC9  3001               	movlw	1
  4148  0BCA  0256               	subwf	___fldiv@new_exp,w
  4149  0BCB                     u4065:	
  4150  0BCB  1803               	skipnc
  4151  0BCC  2BD9               	goto	l672
  4152  0BCD  0020               	movlb	0	; select bank0
  4153  0BCE  01D6               	clrf	___fldiv@new_exp
  4154  0BCF  01D7               	clrf	___fldiv@new_exp+1
  4155  0BD0  3000               	movlw	0
  4156  0BD1  00CB               	movwf	___fldiv@b+3
  4157  0BD2  3000               	movlw	0
  4158  0BD3  00CA               	movwf	___fldiv@b+2
  4159  0BD4  3000               	movlw	0
  4160  0BD5  00C9               	movwf	___fldiv@b+1
  4161  0BD6  3000               	movlw	0
  4162  0BD7  00C8               	movwf	___fldiv@b
  4163  0BD8  01D5               	clrf	___fldiv@sign
  4164  0BD9                     l672:	
  4165  0BD9  0020               	movlb	0	; select bank0
  4166  0BDA  0856               	movf	___fldiv@new_exp,w
  4167  0BDB  00CC               	movwf	??___fldiv
  4168  0BDC  084C               	movf	??___fldiv,w
  4169  0BDD  00DC               	movwf	___fldiv@bexp
  4170  0BDE  1C5C               	btfss	___fldiv@bexp,0
  4171  0BDF  2BE2               	goto	l2999
  4172  0BE0  17CA               	bsf	___fldiv@b+2,7
  4173  0BE1  2BE6               	goto	l674
  4174  0BE2                     l2999:	
  4175  0BE2  307F               	movlw	127
  4176  0BE3  00CC               	movwf	??___fldiv
  4177  0BE4  084C               	movf	??___fldiv,w
  4178  0BE5  05CA               	andwf	___fldiv@b+2,f
  4179  0BE6                     l674:	
  4180  0BE6  365C               	lsrf	___fldiv@bexp,w
  4181  0BE7  00CC               	movwf	??___fldiv
  4182  0BE8  084C               	movf	??___fldiv,w
  4183  0BE9  00CB               	movwf	___fldiv@b+3
  4184  0BEA  2ACC               	goto	L2
  4185  0BEB                     __end_of___fldiv:	
  4186                           
  4187                           	psect	text9
  4188  045A                     __ptext9:	
  4189 ;; *************** function ___fladd *****************
  4190 ;; Defined at:
  4191 ;;		line 10 in file "C:\Program Files (x86)\Microchip\xc8\v2.10\pic\sources\c90\common\sprcadd.c"
  4192 ;; Parameters:    Size  Location     Type
  4193 ;;  b               4   62[BANK0 ] unsigned char 
  4194 ;;  a               4   66[BANK0 ] unsigned char 
  4195 ;; Auto vars:     Size  Location     Type
  4196 ;;  grs             1    3[BANK1 ] unsigned char 
  4197 ;;  bexp            1    2[BANK1 ] unsigned char 
  4198 ;;  aexp            1    1[BANK1 ] unsigned char 
  4199 ;;  signs           1    0[BANK1 ] unsigned char 
  4200 ;; Return value:  Size  Location     Type
  4201 ;;                  4   62[BANK0 ] unsigned char 
  4202 ;; Registers used:
  4203 ;;		wreg, status,2, status,0
  4204 ;; Tracked objects:
  4205 ;;		On entry : 1F/0
  4206 ;;		On exit  : 1E/0
  4207 ;;		Unchanged: 0/0
  4208 ;; Data sizes:     COMMON   BANK0   BANK1   BANK2
  4209 ;;      Params:         0       8       0       0
  4210 ;;      Locals:         0       0       4       0
  4211 ;;      Temps:          0       8       0       0
  4212 ;;      Totals:         0      16       4       0
  4213 ;;Total ram usage:       20 bytes
  4214 ;; Hardware stack levels used:    1
  4215 ;; Hardware stack levels required when called:    1
  4216 ;; This function calls:
  4217 ;;		Nothing
  4218 ;; This function is called by:
  4219 ;;		_main
  4220 ;; This function uses a non-reentrant model
  4221 ;;
  4222                           
  4223                           
  4224                           ;psect for function ___fladd
  4225  045A                     ___fladd:	
  4226                           
  4227                           ;incstack = 0
  4228                           ; Regs used in ___fladd: [wreg+status,2+status,0]
  4229  045A  0861               	movf	___fladd@b+3,w
  4230  045B  3980               	andlw	128
  4231  045C  00E6               	movwf	??___fladd
  4232  045D  0866               	movf	??___fladd,w
  4233  045E  0021               	movlb	1	; select bank1
  4234  045F  00CC               	movwf	___fladd@signs^(0+128)
  4235  0460  0020               	movlb	0	; select bank0
  4236  0461  3561               	lslf	___fladd@b+3,w
  4237  0462  00E6               	movwf	??___fladd
  4238  0463  0866               	movf	??___fladd,w
  4239  0464  0021               	movlb	1	; select bank1
  4240  0465  00CE               	movwf	___fladd@bexp^(0+128)
  4241  0466  0020               	movlb	0	; select bank0
  4242  0467  1FE0               	btfss	___fladd@b+2,7
  4243  0468  2C6B               	goto	l2679
  4244  0469  0021               	movlb	1	; select bank1
  4245  046A  144E               	bsf	___fladd@bexp^(0+128),0
  4246  046B                     l2679:	
  4247  046B  0021               	movlb	1	; select bank1
  4248  046C  084E               	movf	___fladd@bexp^(0+128),w
  4249  046D  1903               	btfsc	3,2
  4250  046E  2C7F               	goto	l2689
  4251  046F  0A4E               	incf	___fladd@bexp^(0+128),w
  4252  0470  1D03               	btfss	3,2
  4253  0471  2C7B               	goto	l2685
  4254  0472  3000               	movlw	0
  4255  0473  0020               	movlb	0	; select bank0
  4256  0474  00E1               	movwf	___fladd@b+3
  4257  0475  3000               	movlw	0
  4258  0476  00E0               	movwf	___fladd@b+2
  4259  0477  3000               	movlw	0
  4260  0478  00DF               	movwf	___fladd@b+1
  4261  0479  3000               	movlw	0
  4262  047A  00DE               	movwf	___fladd@b
  4263  047B                     l2685:	
  4264  047B  0020               	movlb	0	; select bank0
  4265  047C  17E0               	bsf	___fladd@b+2,7
  4266  047D  01E1               	clrf	___fladd@b+3
  4267  047E  2C88               	goto	l2691
  4268  047F                     l2689:	
  4269  047F  3000               	movlw	0
  4270  0480  0020               	movlb	0	; select bank0
  4271  0481  00E1               	movwf	___fladd@b+3
  4272  0482  3000               	movlw	0
  4273  0483  00E0               	movwf	___fladd@b+2
  4274  0484  3000               	movlw	0
  4275  0485  00DF               	movwf	___fladd@b+1
  4276  0486  3000               	movlw	0
  4277  0487  00DE               	movwf	___fladd@b
  4278  0488                     l2691:	
  4279  0488  0865               	movf	___fladd@a+3,w
  4280  0489  3980               	andlw	128
  4281  048A  00E6               	movwf	??___fladd
  4282  048B  0866               	movf	??___fladd,w
  4283  048C  0021               	movlb	1	; select bank1
  4284  048D  00CD               	movwf	___fladd@aexp^(0+128)
  4285  048E  084D               	movf	___fladd@aexp^(0+128),w
  4286  048F  064C               	xorwf	___fladd@signs^(0+128),w
  4287  0490  1D03               	btfss	3,2
  4288  0491  174C               	bsf	___fladd@signs^(0+128),6
  4289  0492  0020               	movlb	0	; select bank0
  4290  0493  3565               	lslf	___fladd@a+3,w
  4291  0494  00E6               	movwf	??___fladd
  4292  0495  0866               	movf	??___fladd,w
  4293  0496  0021               	movlb	1	; select bank1
  4294  0497  00CD               	movwf	___fladd@aexp^(0+128)
  4295  0498  0020               	movlb	0	; select bank0
  4296  0499  1FE4               	btfss	___fladd@a+2,7
  4297  049A  2C9D               	goto	l2703
  4298  049B  0021               	movlb	1	; select bank1
  4299  049C  144D               	bsf	___fladd@aexp^(0+128),0
  4300  049D                     l2703:	
  4301  049D  0021               	movlb	1	; select bank1
  4302  049E  084D               	movf	___fladd@aexp^(0+128),w
  4303  049F  1903               	btfsc	3,2
  4304  04A0  2CB1               	goto	l2713
  4305  04A1  0A4D               	incf	___fladd@aexp^(0+128),w
  4306  04A2  1D03               	btfss	3,2
  4307  04A3  2CAD               	goto	l2709
  4308  04A4  3000               	movlw	0
  4309  04A5  0020               	movlb	0	; select bank0
  4310  04A6  00E5               	movwf	___fladd@a+3
  4311  04A7  3000               	movlw	0
  4312  04A8  00E4               	movwf	___fladd@a+2
  4313  04A9  3000               	movlw	0
  4314  04AA  00E3               	movwf	___fladd@a+1
  4315  04AB  3000               	movlw	0
  4316  04AC  00E2               	movwf	___fladd@a
  4317  04AD                     l2709:	
  4318  04AD  0020               	movlb	0	; select bank0
  4319  04AE  17E4               	bsf	___fladd@a+2,7
  4320  04AF  01E5               	clrf	___fladd@a+3
  4321  04B0  2CBA               	goto	l594
  4322  04B1                     l2713:	
  4323  04B1  3000               	movlw	0
  4324  04B2  0020               	movlb	0	; select bank0
  4325  04B3  00E5               	movwf	___fladd@a+3
  4326  04B4  3000               	movlw	0
  4327  04B5  00E4               	movwf	___fladd@a+2
  4328  04B6  3000               	movlw	0
  4329  04B7  00E3               	movwf	___fladd@a+1
  4330  04B8  3000               	movlw	0
  4331  04B9  00E2               	movwf	___fladd@a
  4332  04BA                     l594:	
  4333  04BA  0021               	movlb	1	; select bank1
  4334  04BB  084E               	movf	___fladd@bexp^(0+128),w
  4335  04BC  024D               	subwf	___fladd@aexp^(0+128),w
  4336  04BD  1803               	skipnc
  4337  04BE  2D1A               	goto	l2749
  4338  04BF  1F4C               	btfss	___fladd@signs^(0+128),6
  4339  04C0  2CC7               	goto	l2719
  4340  04C1  3080               	movlw	128
  4341  04C2  0020               	movlb	0	; select bank0
  4342  04C3  00E6               	movwf	??___fladd
  4343  04C4  0866               	movf	??___fladd,w
  4344  04C5  0021               	movlb	1	; select bank1
  4345  04C6  06CC               	xorwf	___fladd@signs^(0+128),f
  4346  04C7                     l2719:	
  4347  04C7  084E               	movf	___fladd@bexp^(0+128),w
  4348  04C8  0020               	movlb	0	; select bank0
  4349  04C9  00E6               	movwf	??___fladd
  4350  04CA  0866               	movf	??___fladd,w
  4351  04CB  0021               	movlb	1	; select bank1
  4352  04CC  00CF               	movwf	___fladd@grs^(0+128)
  4353  04CD  084D               	movf	___fladd@aexp^(0+128),w
  4354  04CE  0020               	movlb	0	; select bank0
  4355  04CF  00E6               	movwf	??___fladd
  4356  04D0  0866               	movf	??___fladd,w
  4357  04D1  0021               	movlb	1	; select bank1
  4358  04D2  00CE               	movwf	___fladd@bexp^(0+128)
  4359  04D3  084F               	movf	___fladd@grs^(0+128),w
  4360  04D4  0020               	movlb	0	; select bank0
  4361  04D5  00E6               	movwf	??___fladd
  4362  04D6  0866               	movf	??___fladd,w
  4363  04D7  0021               	movlb	1	; select bank1
  4364  04D8  00CD               	movwf	___fladd@aexp^(0+128)
  4365  04D9  0020               	movlb	0	; select bank0
  4366  04DA  085E               	movf	___fladd@b,w
  4367  04DB  00E6               	movwf	??___fladd
  4368  04DC  0866               	movf	??___fladd,w
  4369  04DD  0021               	movlb	1	; select bank1
  4370  04DE  00CF               	movwf	___fladd@grs^(0+128)
  4371  04DF  0020               	movlb	0	; select bank0
  4372  04E0  0862               	movf	___fladd@a,w
  4373  04E1  00E6               	movwf	??___fladd
  4374  04E2  0866               	movf	??___fladd,w
  4375  04E3  00DE               	movwf	___fladd@b
  4376  04E4  0021               	movlb	1	; select bank1
  4377  04E5  084F               	movf	___fladd@grs^(0+128),w
  4378  04E6  0020               	movlb	0	; select bank0
  4379  04E7  00E6               	movwf	??___fladd
  4380  04E8  0866               	movf	??___fladd,w
  4381  04E9  00E2               	movwf	___fladd@a
  4382  04EA  085F               	movf	___fladd@b+1,w
  4383  04EB  00E6               	movwf	??___fladd
  4384  04EC  0866               	movf	??___fladd,w
  4385  04ED  0021               	movlb	1	; select bank1
  4386  04EE  00CF               	movwf	___fladd@grs^(0+128)
  4387  04EF  0020               	movlb	0	; select bank0
  4388  04F0  0863               	movf	___fladd@a+1,w
  4389  04F1  00E6               	movwf	??___fladd
  4390  04F2  0866               	movf	??___fladd,w
  4391  04F3  00DF               	movwf	___fladd@b+1
  4392  04F4  0021               	movlb	1	; select bank1
  4393  04F5  084F               	movf	___fladd@grs^(0+128),w
  4394  04F6  0020               	movlb	0	; select bank0
  4395  04F7  00E6               	movwf	??___fladd
  4396  04F8  0866               	movf	??___fladd,w
  4397  04F9  00E3               	movwf	___fladd@a+1
  4398  04FA  0860               	movf	___fladd@b+2,w
  4399  04FB  00E6               	movwf	??___fladd
  4400  04FC  0866               	movf	??___fladd,w
  4401  04FD  0021               	movlb	1	; select bank1
  4402  04FE  00CF               	movwf	___fladd@grs^(0+128)
  4403  04FF  0020               	movlb	0	; select bank0
  4404  0500  0864               	movf	___fladd@a+2,w
  4405  0501  00E6               	movwf	??___fladd
  4406  0502  0866               	movf	??___fladd,w
  4407  0503  00E0               	movwf	___fladd@b+2
  4408  0504  0021               	movlb	1	; select bank1
  4409  0505  084F               	movf	___fladd@grs^(0+128),w
  4410  0506  0020               	movlb	0	; select bank0
  4411  0507  00E6               	movwf	??___fladd
  4412  0508  0866               	movf	??___fladd,w
  4413  0509  00E4               	movwf	___fladd@a+2
  4414  050A  0861               	movf	___fladd@b+3,w
  4415  050B  00E6               	movwf	??___fladd
  4416  050C  0866               	movf	??___fladd,w
  4417  050D  0021               	movlb	1	; select bank1
  4418  050E  00CF               	movwf	___fladd@grs^(0+128)
  4419  050F  0020               	movlb	0	; select bank0
  4420  0510  0865               	movf	___fladd@a+3,w
  4421  0511  00E6               	movwf	??___fladd
  4422  0512  0866               	movf	??___fladd,w
  4423  0513  00E1               	movwf	___fladd@b+3
  4424  0514  0021               	movlb	1	; select bank1
  4425  0515  084F               	movf	___fladd@grs^(0+128),w
  4426  0516  0020               	movlb	0	; select bank0
  4427  0517  00E6               	movwf	??___fladd
  4428  0518  0866               	movf	??___fladd,w
  4429  0519  00E5               	movwf	___fladd@a+3
  4430  051A                     l2749:	
  4431  051A  0021               	movlb	1	; select bank1
  4432  051B  01CF               	clrf	___fladd@grs^(0+128)
  4433  051C  084D               	movf	___fladd@aexp^(0+128),w
  4434  051D  0020               	movlb	0	; select bank0
  4435  051E  00E6               	movwf	??___fladd
  4436  051F  01E7               	clrf	??___fladd+1
  4437  0520  0867               	movf	??___fladd+1,w
  4438  0521  00E9               	movwf	??___fladd+3
  4439  0522  0021               	movlb	1	; select bank1
  4440  0523  084E               	movf	___fladd@bexp^(0+128),w
  4441  0524  0020               	movlb	0	; select bank0
  4442  0525  0266               	subwf	??___fladd,w
  4443  0526  00E8               	movwf	??___fladd+2
  4444  0527  1C03               	skipc
  4445  0528  03E9               	decf	??___fladd+3,f
  4446  0529  0869               	movf	??___fladd+3,w
  4447  052A  3A80               	xorlw	128
  4448  052B  00EA               	movwf	??___fladd+4
  4449  052C  3080               	movlw	128
  4450  052D  026A               	subwf	??___fladd+4,w
  4451  052E  1D03               	skipz
  4452  052F  2D32               	goto	u3455
  4453  0530  301A               	movlw	26
  4454  0531  0268               	subwf	??___fladd+2,w
  4455  0532                     u3455:	
  4456  0532  1C03               	skipc
  4457  0533  2D72               	goto	l2767
  4458  0534  0020               	movlb	0	; select bank0
  4459  0535  0861               	movf	___fladd@b+3,w
  4460  0536  0460               	iorwf	___fladd@b+2,w
  4461  0537  045F               	iorwf	___fladd@b+1,w
  4462  0538  045E               	iorwf	___fladd@b,w
  4463  0539  1903               	btfsc	3,2
  4464  053A  2D3D               	goto	u3460
  4465  053B  3001               	movlw	1
  4466  053C  2D3E               	goto	u3470
  4467  053D                     u3460:	
  4468  053D  3000               	movlw	0
  4469  053E                     u3470:	
  4470  053E  00E6               	movwf	??___fladd
  4471  053F  0866               	movf	??___fladd,w
  4472  0540  0021               	movlb	1	; select bank1
  4473  0541  00CF               	movwf	___fladd@grs^(0+128)
  4474  0542  3000               	movlw	0
  4475  0543  0020               	movlb	0	; select bank0
  4476  0544  00E1               	movwf	___fladd@b+3
  4477  0545  3000               	movlw	0
  4478  0546  00E0               	movwf	___fladd@b+2
  4479  0547  3000               	movlw	0
  4480  0548  00DF               	movwf	___fladd@b+1
  4481  0549  3000               	movlw	0
  4482  054A  00DE               	movwf	___fladd@b
  4483  054B  0021               	movlb	1	; select bank1
  4484  054C  084D               	movf	___fladd@aexp^(0+128),w
  4485  054D  0020               	movlb	0	; select bank0
  4486  054E  00E6               	movwf	??___fladd
  4487  054F  0866               	movf	??___fladd,w
  4488  0550  0021               	movlb	1	; select bank1
  4489  0551  00CE               	movwf	___fladd@bexp^(0+128)
  4490  0552  2D77               	goto	l598
  4491  0553                     l600:	
  4492  0553  1C4F               	btfss	___fladd@grs^(0+128),0
  4493  0554  2D5D               	goto	l2757
  4494  0555  364F               	lsrf	___fladd@grs^(0+128),w
  4495  0556  3801               	iorlw	1
  4496  0557  0020               	movlb	0	; select bank0
  4497  0558  00E6               	movwf	??___fladd
  4498  0559  0866               	movf	??___fladd,w
  4499  055A  0021               	movlb	1	; select bank1
  4500  055B  00CF               	movwf	___fladd@grs^(0+128)
  4501  055C  2D5F               	goto	l2759
  4502  055D                     l2757:	
  4503  055D  1003               	clrc
  4504  055E  0CCF               	rrf	___fladd@grs^(0+128),f
  4505  055F                     l2759:	
  4506  055F  0020               	movlb	0	; select bank0
  4507  0560  1C5E               	btfss	___fladd@b,0
  4508  0561  2D64               	goto	l2763
  4509  0562  0021               	movlb	1	; select bank1
  4510  0563  17CF               	bsf	___fladd@grs^(0+128),7
  4511  0564                     l2763:	
  4512  0564  3001               	movlw	1
  4513  0565  0020               	movlb	0	; select bank0
  4514  0566  00E6               	movwf	??___fladd
  4515  0567                     u3505:	
  4516  0567  37E1               	asrf	___fladd@b+3,f
  4517  0568  0CE0               	rrf	___fladd@b+2,f
  4518  0569  0CDF               	rrf	___fladd@b+1,f
  4519  056A  0CDE               	rrf	___fladd@b,f
  4520  056B  0BE6               	decfsz	??___fladd& (0+127),f
  4521  056C  2D67               	goto	u3505
  4522  056D  3001               	movlw	1
  4523  056E  00E6               	movwf	??___fladd
  4524  056F  0866               	movf	??___fladd,w
  4525  0570  0021               	movlb	1	; select bank1
  4526  0571  07CE               	addwf	___fladd@bexp^(0+128),f
  4527  0572                     l2767:	
  4528  0572  0021               	movlb	1	; select bank1
  4529  0573  084D               	movf	___fladd@aexp^(0+128),w
  4530  0574  024E               	subwf	___fladd@bexp^(0+128),w
  4531  0575  1C03               	skipc
  4532  0576  2D53               	goto	l600
  4533  0577                     l598:	
  4534  0577  1B4C               	btfsc	___fladd@signs^(0+128),6
  4535  0578  2DB2               	goto	l2793
  4536  0579  084E               	movf	___fladd@bexp^(0+128),w
  4537  057A  1D03               	btfss	3,2
  4538  057B  2D86               	goto	l2775
  4539  057C  3000               	movlw	0
  4540  057D  0020               	movlb	0	; select bank0
  4541  057E  00E1               	movwf	?___fladd+3
  4542  057F  3000               	movlw	0
  4543  0580  00E0               	movwf	?___fladd+2
  4544  0581  3000               	movlw	0
  4545  0582  00DF               	movwf	?___fladd+1
  4546  0583  3000               	movlw	0
  4547  0584  00DE               	movwf	?___fladd
  4548  0585  0008               	return
  4549  0586                     l2775:	
  4550  0586  0020               	movlb	0	; select bank0
  4551  0587  0862               	movf	___fladd@a,w
  4552  0588  07DE               	addwf	___fladd@b,f
  4553  0589  0863               	movf	___fladd@a+1,w
  4554  058A  3DDF               	addwfc	___fladd@b+1,f
  4555  058B  0864               	movf	___fladd@a+2,w
  4556  058C  3DE0               	addwfc	___fladd@b+2,f
  4557  058D  0865               	movf	___fladd@a+3,w
  4558  058E  3DE1               	addwfc	___fladd@b+3,f
  4559  058F  1C61               	btfss	___fladd@b+3,0
  4560  0590  2E37               	goto	l2827
  4561  0591  0021               	movlb	1	; select bank1
  4562  0592  1C4F               	btfss	___fladd@grs^(0+128),0
  4563  0593  2D9C               	goto	l2783
  4564  0594  364F               	lsrf	___fladd@grs^(0+128),w
  4565  0595  3801               	iorlw	1
  4566  0596  0020               	movlb	0	; select bank0
  4567  0597  00E6               	movwf	??___fladd
  4568  0598  0866               	movf	??___fladd,w
  4569  0599  0021               	movlb	1	; select bank1
  4570  059A  00CF               	movwf	___fladd@grs^(0+128)
  4571  059B  2D9E               	goto	l2785
  4572  059C                     l2783:	
  4573  059C  1003               	clrc
  4574  059D  0CCF               	rrf	___fladd@grs^(0+128),f
  4575  059E                     l2785:	
  4576  059E  0020               	movlb	0	; select bank0
  4577  059F  1C5E               	btfss	___fladd@b,0
  4578  05A0  2DA3               	goto	l2789
  4579  05A1  0021               	movlb	1	; select bank1
  4580  05A2  17CF               	bsf	___fladd@grs^(0+128),7
  4581  05A3                     l2789:	
  4582  05A3  3001               	movlw	1
  4583  05A4  0020               	movlb	0	; select bank0
  4584  05A5  00E6               	movwf	??___fladd
  4585  05A6                     u3575:	
  4586  05A6  37E1               	asrf	___fladd@b+3,f
  4587  05A7  0CE0               	rrf	___fladd@b+2,f
  4588  05A8  0CDF               	rrf	___fladd@b+1,f
  4589  05A9  0CDE               	rrf	___fladd@b,f
  4590  05AA  0BE6               	decfsz	??___fladd& (0+127),f
  4591  05AB  2DA6               	goto	u3575
  4592  05AC  3001               	movlw	1
  4593  05AD  00E6               	movwf	??___fladd
  4594  05AE  0866               	movf	??___fladd,w
  4595  05AF  0021               	movlb	1	; select bank1
  4596  05B0  07CE               	addwf	___fladd@bexp^(0+128),f
  4597  05B1  2E37               	goto	l2827
  4598  05B2                     l2793:	
  4599  05B2  0020               	movlb	0	; select bank0
  4600  05B3  0861               	movf	___fladd@b+3,w
  4601  05B4  3A80               	xorlw	128
  4602  05B5  00E6               	movwf	??___fladd
  4603  05B6  0865               	movf	___fladd@a+3,w
  4604  05B7  3A80               	xorlw	128
  4605  05B8  0266               	subwf	??___fladd,w
  4606  05B9  1D03               	skipz
  4607  05BA  2DC5               	goto	u3583
  4608  05BB  0864               	movf	___fladd@a+2,w
  4609  05BC  0260               	subwf	___fladd@b+2,w
  4610  05BD  1D03               	skipz
  4611  05BE  2DC5               	goto	u3583
  4612  05BF  0863               	movf	___fladd@a+1,w
  4613  05C0  025F               	subwf	___fladd@b+1,w
  4614  05C1  1D03               	skipz
  4615  05C2  2DC5               	goto	u3583
  4616  05C3  0862               	movf	___fladd@a,w
  4617  05C4  025E               	subwf	___fladd@b,w
  4618  05C5                     u3583:	
  4619  05C5  1803               	skipnc
  4620  05C6  2DFF               	goto	l2803
  4621  05C7  30FF               	movlw	255
  4622  05C8  00E6               	movwf	??___fladd
  4623  05C9  30FF               	movlw	255
  4624  05CA  00E7               	movwf	??___fladd+1
  4625  05CB  30FF               	movlw	255
  4626  05CC  00E8               	movwf	??___fladd+2
  4627  05CD  30FF               	movlw	255
  4628  05CE  00E9               	movwf	??___fladd+3
  4629  05CF  085E               	movf	___fladd@b,w
  4630  05D0  0262               	subwf	___fladd@a,w
  4631  05D1  00EA               	movwf	??___fladd+4
  4632  05D2  085F               	movf	___fladd@b+1,w
  4633  05D3  3B63               	subwfb	___fladd@a+1,w
  4634  05D4  00EB               	movwf	??___fladd+5
  4635  05D5  0860               	movf	___fladd@b+2,w
  4636  05D6  3B64               	subwfb	___fladd@a+2,w
  4637  05D7  00EC               	movwf	??___fladd+6
  4638  05D8  0861               	movf	___fladd@b+3,w
  4639  05D9  3B65               	subwfb	___fladd@a+3,w
  4640  05DA  00ED               	movwf	??___fladd+7
  4641  05DB  086A               	movf	??___fladd+4,w
  4642  05DC  07E6               	addwf	??___fladd,f
  4643  05DD  086B               	movf	??___fladd+5,w
  4644  05DE  3DE7               	addwfc	??___fladd+1,f
  4645  05DF  086C               	movf	??___fladd+6,w
  4646  05E0  3DE8               	addwfc	??___fladd+2,f
  4647  05E1  086D               	movf	??___fladd+7,w
  4648  05E2  3DE9               	addwfc	??___fladd+3,f
  4649  05E3  0869               	movf	??___fladd+3,w
  4650  05E4  00E1               	movwf	___fladd@b+3
  4651  05E5  0868               	movf	??___fladd+2,w
  4652  05E6  00E0               	movwf	___fladd@b+2
  4653  05E7  0867               	movf	??___fladd+1,w
  4654  05E8  00DF               	movwf	___fladd@b+1
  4655  05E9  0866               	movf	??___fladd,w
  4656  05EA  00DE               	movwf	___fladd@b
  4657  05EB  3080               	movlw	128
  4658  05EC  00E6               	movwf	??___fladd
  4659  05ED  0866               	movf	??___fladd,w
  4660  05EE  0021               	movlb	1	; select bank1
  4661  05EF  06CC               	xorwf	___fladd@signs^(0+128),f
  4662  05F0  09CF               	comf	___fladd@grs^(0+128),f
  4663  05F1  0ACF               	incf	___fladd@grs^(0+128),f
  4664  05F2  084F               	movf	___fladd@grs^(0+128),w
  4665  05F3  1D03               	btfss	3,2
  4666  05F4  2E07               	goto	l615
  4667  05F5  3001               	movlw	1
  4668  05F6  0020               	movlb	0	; select bank0
  4669  05F7  07DE               	addwf	___fladd@b,f
  4670  05F8  3000               	movlw	0
  4671  05F9  3DDF               	addwfc	___fladd@b+1,f
  4672  05FA  3000               	movlw	0
  4673  05FB  3DE0               	addwfc	___fladd@b+2,f
  4674  05FC  3000               	movlw	0
  4675  05FD  3DE1               	addwfc	___fladd@b+3,f
  4676  05FE  2E07               	goto	l615
  4677  05FF                     l2803:	
  4678  05FF  0862               	movf	___fladd@a,w
  4679  0600  02DE               	subwf	___fladd@b,f
  4680  0601  0863               	movf	___fladd@a+1,w
  4681  0602  3BDF               	subwfb	___fladd@b+1,f
  4682  0603  0864               	movf	___fladd@a+2,w
  4683  0604  3BE0               	subwfb	___fladd@b+2,f
  4684  0605  0865               	movf	___fladd@a+3,w
  4685  0606  3BE1               	subwfb	___fladd@b+3,f
  4686  0607                     l615:	
  4687  0607  0020               	movlb	0	; select bank0
  4688  0608  0861               	movf	___fladd@b+3,w
  4689  0609  0460               	iorwf	___fladd@b+2,w
  4690  060A  045F               	iorwf	___fladd@b+1,w
  4691  060B  045E               	iorwf	___fladd@b,w
  4692  060C  1D03               	skipz
  4693  060D  2E34               	goto	l2825
  4694  060E  0021               	movlb	1	; select bank1
  4695  060F  084F               	movf	___fladd@grs^(0+128),w
  4696  0610  1D03               	btfss	3,2
  4697  0611  2E34               	goto	l2825
  4698  0612  3000               	movlw	0
  4699  0613  0020               	movlb	0	; select bank0
  4700  0614  00E1               	movwf	?___fladd+3
  4701  0615  3000               	movlw	0
  4702  0616  00E0               	movwf	?___fladd+2
  4703  0617  3000               	movlw	0
  4704  0618  00DF               	movwf	?___fladd+1
  4705  0619  3000               	movlw	0
  4706  061A  00DE               	movwf	?___fladd
  4707  061B  0008               	return
  4708  061C                     l2811:	
  4709  061C  3001               	movlw	1
  4710  061D                     u3625:	
  4711  061D  35DE               	lslf	___fladd@b,f
  4712  061E  0DDF               	rlf	___fladd@b+1,f
  4713  061F  0DE0               	rlf	___fladd@b+2,f
  4714  0620  0DE1               	rlf	___fladd@b+3,f
  4715  0621  0B89               	decfsz	9,f
  4716  0622  2E1D               	goto	u3625
  4717  0623  0021               	movlb	1	; select bank1
  4718  0624  1FCF               	btfss	___fladd@grs^(0+128),7
  4719  0625  2E28               	goto	l619
  4720  0626  0020               	movlb	0	; select bank0
  4721  0627  145E               	bsf	___fladd@b,0
  4722  0628                     l619:	
  4723  0628  0021               	movlb	1	; select bank1
  4724  0629  1C4F               	btfss	___fladd@grs^(0+128),0
  4725  062A  2E2D               	goto	l2819
  4726  062B  1403               	setc
  4727  062C  2E2E               	goto	L3
  4728  062D                     l2819:	
  4729  062D  1003               	clrc
  4730  062E                     L3:	
  4731  062E  0DCF               	rlf	___fladd@grs^(0+128),f
  4732  062F  084E               	movf	___fladd@bexp^(0+128),w
  4733  0630  1903               	btfsc	3,2
  4734  0631  2E34               	goto	l2825
  4735  0632  3001               	movlw	1
  4736  0633  02CE               	subwf	___fladd@bexp^(0+128),f
  4737  0634                     l2825:	
  4738  0634  0020               	movlb	0	; select bank0
  4739  0635  1FE0               	btfss	___fladd@b+2,7
  4740  0636  2E1C               	goto	l2811
  4741  0637                     l2827:	
  4742  0637  0021               	movlb	1	; select bank1
  4743  0638  01CD               	clrf	___fladd@aexp^(0+128)
  4744  0639  1FCF               	btfss	___fladd@grs^(0+128),7
  4745  063A  2E45               	goto	l2837
  4746  063B  084F               	movf	___fladd@grs^(0+128),w
  4747  063C  397F               	andlw	127
  4748  063D  1D03               	btfss	3,2
  4749  063E  2E42               	goto	l2833
  4750  063F  0020               	movlb	0	; select bank0
  4751  0640  1C5E               	btfss	___fladd@b,0
  4752  0641  2E45               	goto	l2837
  4753  0642                     l2833:	
  4754  0642  0021               	movlb	1	; select bank1
  4755  0643  01CD               	clrf	___fladd@aexp^(0+128)
  4756  0644  0ACD               	incf	___fladd@aexp^(0+128),f
  4757  0645                     l2837:	
  4758  0645  0021               	movlb	1	; select bank1
  4759  0646  084D               	movf	___fladd@aexp^(0+128),w
  4760  0647  1903               	btfsc	3,2
  4761  0648  2E76               	goto	l628
  4762  0649  3001               	movlw	1
  4763  064A  0020               	movlb	0	; select bank0
  4764  064B  07DE               	addwf	___fladd@b,f
  4765  064C  3000               	movlw	0
  4766  064D  3DDF               	addwfc	___fladd@b+1,f
  4767  064E  3000               	movlw	0
  4768  064F  3DE0               	addwfc	___fladd@b+2,f
  4769  0650  3000               	movlw	0
  4770  0651  3DE1               	addwfc	___fladd@b+3,f
  4771  0652  1C61               	btfss	___fladd@b+3,0
  4772  0653  2E76               	goto	l628
  4773  0654  085E               	movf	___fladd@b,w
  4774  0655  00E6               	movwf	??___fladd
  4775  0656  085F               	movf	___fladd@b+1,w
  4776  0657  00E7               	movwf	??___fladd+1
  4777  0658  0860               	movf	___fladd@b+2,w
  4778  0659  00E8               	movwf	??___fladd+2
  4779  065A  0861               	movf	___fladd@b+3,w
  4780  065B  00E9               	movwf	??___fladd+3
  4781  065C  3001               	movlw	1
  4782  065D  00EA               	movwf	??___fladd+4
  4783  065E                     u3725:	
  4784  065E  37E9               	asrf	??___fladd+3,f
  4785  065F  0CE8               	rrf	??___fladd+2,f
  4786  0660  0CE7               	rrf	??___fladd+1,f
  4787  0661  0CE6               	rrf	??___fladd,f
  4788  0662  0BEA               	decfsz	??___fladd+4,f
  4789  0663  2E5E               	goto	u3725
  4790  0664  0869               	movf	??___fladd+3,w
  4791  0665  00E1               	movwf	___fladd@b+3
  4792  0666  0868               	movf	??___fladd+2,w
  4793  0667  00E0               	movwf	___fladd@b+2
  4794  0668  0867               	movf	??___fladd+1,w
  4795  0669  00DF               	movwf	___fladd@b+1
  4796  066A  0866               	movf	??___fladd,w
  4797  066B  00DE               	movwf	___fladd@b
  4798  066C  0021               	movlb	1	; select bank1
  4799  066D  0A4E               	incf	___fladd@bexp^(0+128),w
  4800  066E  1903               	btfsc	3,2
  4801  066F  2E76               	goto	l628
  4802  0670  3001               	movlw	1
  4803  0671  0020               	movlb	0	; select bank0
  4804  0672  00E6               	movwf	??___fladd
  4805  0673  0866               	movf	??___fladd,w
  4806  0674  0021               	movlb	1	; select bank1
  4807  0675  07CE               	addwf	___fladd@bexp^(0+128),f
  4808  0676                     l628:	
  4809  0676  0021               	movlb	1	; select bank1
  4810  0677  0A4E               	incf	___fladd@bexp^(0+128),w
  4811  0678  1D03               	btfss	3,2
  4812  0679  084E               	movf	___fladd@bexp^(0+128),w
  4813  067A  1D03               	btfss	3,2
  4814  067B  2E89               	goto	l2855
  4815  067C  3000               	movlw	0
  4816  067D  0020               	movlb	0	; select bank0
  4817  067E  00E1               	movwf	___fladd@b+3
  4818  067F  3000               	movlw	0
  4819  0680  00E0               	movwf	___fladd@b+2
  4820  0681  3000               	movlw	0
  4821  0682  00DF               	movwf	___fladd@b+1
  4822  0683  3000               	movlw	0
  4823  0684  00DE               	movwf	___fladd@b
  4824  0685  0021               	movlb	1	; select bank1
  4825  0686  084E               	movf	___fladd@bexp^(0+128),w
  4826  0687  1903               	btfsc	3,2
  4827  0688  01CC               	clrf	___fladd@signs^(0+128)
  4828  0689                     l2855:	
  4829  0689  1C4E               	btfss	___fladd@bexp^(0+128),0
  4830  068A  2E8E               	goto	l2859
  4831  068B  0020               	movlb	0	; select bank0
  4832  068C  17E0               	bsf	___fladd@b+2,7
  4833  068D  2E93               	goto	l636
  4834  068E                     l2859:	
  4835  068E  307F               	movlw	127
  4836  068F  0020               	movlb	0	; select bank0
  4837  0690  00E6               	movwf	??___fladd
  4838  0691  0866               	movf	??___fladd,w
  4839  0692  05E0               	andwf	___fladd@b+2,f
  4840  0693                     l636:	
  4841  0693  0021               	movlb	1	; select bank1
  4842  0694  364E               	lsrf	___fladd@bexp^(0+128),w
  4843  0695  0020               	movlb	0	; select bank0
  4844  0696  00E6               	movwf	??___fladd
  4845  0697  0866               	movf	??___fladd,w
  4846  0698  00E1               	movwf	___fladd@b+3
  4847  0699  0021               	movlb	1	; select bank1
  4848  069A  1FCC               	btfss	___fladd@signs^(0+128),7
  4849  069B  0008               	return
  4850  069C  0020               	movlb	0	; select bank0
  4851  069D  17E1               	bsf	___fladd@b+3,7
  4852  069E  0008               	return
  4853  069F                     __end_of___fladd:	
  4854                           
  4855                           	psect	text10
  4856  0A54                     __ptext10:	
  4857 ;; *************** function _ADC_read *****************
  4858 ;; Defined at:
  4859 ;;		line 77 in file "main.c"
  4860 ;; Parameters:    Size  Location     Type
  4861 ;;  channel         1    wreg     unsigned char 
  4862 ;; Auto vars:     Size  Location     Type
  4863 ;;  channel         1    4[COMMON] unsigned char 
  4864 ;; Return value:  Size  Location     Type
  4865 ;;                  2    1[COMMON] unsigned int 
  4866 ;; Registers used:
  4867 ;;		wreg, status,2, status,0
  4868 ;; Tracked objects:
  4869 ;;		On entry : 0/1
  4870 ;;		On exit  : 1F/1
  4871 ;;		Unchanged: 0/0
  4872 ;; Data sizes:     COMMON   BANK0   BANK1   BANK2
  4873 ;;      Params:         2       0       0       0
  4874 ;;      Locals:         1       0       0       0
  4875 ;;      Temps:          1       0       0       0
  4876 ;;      Totals:         4       0       0       0
  4877 ;;Total ram usage:        4 bytes
  4878 ;; Hardware stack levels used:    1
  4879 ;; Hardware stack levels required when called:    1
  4880 ;; This function calls:
  4881 ;;		Nothing
  4882 ;; This function is called by:
  4883 ;;		_main
  4884 ;; This function uses a non-reentrant model
  4885 ;;
  4886                           
  4887                           
  4888                           ;psect for function _ADC_read
  4889  0A54                     _ADC_read:	
  4890                           
  4891                           ;incstack = 0
  4892                           ; Regs used in _ADC_read: [wreg+status,2+status,0]
  4893                           ;ADC_read@channel stored from wreg
  4894  0A54  00F4               	movwf	ADC_read@channel
  4895                           
  4896                           ;main.c: 78: ADCON0 = (unsigned char) (channel << 2);
  4897  0A55  0874               	movf	ADC_read@channel,w
  4898  0A56  00F3               	movwf	??_ADC_read
  4899  0A57  3001               	movlw	1
  4900  0A58                     u3135:	
  4901  0A58  35F3               	lslf	??_ADC_read,f
  4902  0A59  3EFF               	addlw	-1
  4903  0A5A  1D03               	skipz
  4904  0A5B  2A58               	goto	u3135
  4905  0A5C  3573               	lslf	??_ADC_read,w
  4906  0A5D  0021               	movlb	1	; select bank1
  4907  0A5E  009D               	movwf	29	;volatile
  4908                           
  4909                           ;main.c: 79: ADCON0bits.ADON = 1;
  4910  0A5F  141D               	bsf	29,0	;volatile
  4911                           
  4912                           ;main.c: 80: _delay((unsigned long)((1)*(32000000/4000.0)));
  4913  0A60  300B               	movlw	11
  4914  0A61  00F3               	movwf	??_ADC_read
  4915  0A62  3062               	movlw	98
  4916  0A63                     u4537:	
  4917  0A63  0B89               	decfsz	9,f
  4918  0A64  2A63               	goto	u4537
  4919  0A65  0BF3               	decfsz	??_ADC_read,f
  4920  0A66  2A63               	goto	u4537
  4921  0A67  3200               	nop2
  4922                           
  4923                           ;main.c: 81: ADCON0bits.GO_nDONE = 1;
  4924  0A68  0021               	movlb	1	; select bank1
  4925  0A69  149D               	bsf	29,1	;volatile
  4926  0A6A                     l75:	
  4927                           ;main.c: 82: while (ADCON0bits.GO_nDONE);
  4928                           
  4929  0A6A  189D               	btfsc	29,1	;volatile
  4930  0A6B  2A6A               	goto	l75
  4931                           
  4932                           ;main.c: 83: ADCON0bits.ADON = 0;
  4933  0A6C  101D               	bcf	29,0	;volatile
  4934                           
  4935                           ;main.c: 84: return (((unsigned int) ADRESH) << 8) | ((unsigned int) ADRESL & 0xFF);
  4936  0A6D  081C               	movf	28,w	;volatile
  4937  0A6E  00F2               	movwf	?_ADC_read+1
  4938  0A6F  081B               	movf	27,w	;volatile
  4939  0A70  00F1               	movwf	?_ADC_read
  4940  0A71  0008               	return
  4941  0A72                     __end_of_ADC_read:	
  4942                           
  4943                           	psect	intentry
  4944  0004                     __pintentry:	
  4945 ;; *************** function _isr *****************
  4946 ;; Defined at:
  4947 ;;		line 110 in file "main.c"
  4948 ;; Parameters:    Size  Location     Type
  4949 ;;		None
  4950 ;; Auto vars:     Size  Location     Type
  4951 ;;		None
  4952 ;; Return value:  Size  Location     Type
  4953 ;;                  1    wreg      void 
  4954 ;; Registers used:
  4955 ;;		wreg, fsr1l, fsr1h, status,2, status,0
  4956 ;; Tracked objects:
  4957 ;;		On entry : 0/0
  4958 ;;		On exit  : 1F/0
  4959 ;;		Unchanged: 0/0
  4960 ;; Data sizes:     COMMON   BANK0   BANK1   BANK2
  4961 ;;      Params:         0       0       0       0
  4962 ;;      Locals:         0       0       0       0
  4963 ;;      Temps:          1       0       0       0
  4964 ;;      Totals:         1       0       0       0
  4965 ;;Total ram usage:        1 bytes
  4966 ;; Hardware stack levels used:    1
  4967 ;; This function calls:
  4968 ;;		Nothing
  4969 ;; This function is called by:
  4970 ;;		Interrupt level 1
  4971 ;; This function uses a non-reentrant model
  4972 ;;
  4973                           
  4974  0004                     _isr:	
  4975                           
  4976                           ;incstack = 0
  4977  0004  147E               	bsf	126,0	;set compiler interrupt flag (level 1)
  4978                           
  4979                           ; Regs used in _isr: [wreg+fsr1l+fsr1h+status,2+status,0]
  4980  0005  3180               	pagesel	$
  4981                           
  4982                           ;main.c: 112: static unsigned char junk = 0;;main.c: 114: if (PIR1bits.SSP1IF)
  4983  0006  0020               	movlb	0	; select bank0
  4984  0007  1D91               	btfss	17,3	;volatile
  4985  0008  286E               	goto	i1l2413
  4986                           
  4987                           ;main.c: 115: {;main.c: 116: INTCONbits.IOCIE = 0;
  4988  0009  118B               	bcf	11,3	;volatile
  4989                           
  4990                           ;main.c: 117: PIE1bits.TMR1IE = 0;
  4991  000A  0021               	movlb	1	; select bank1
  4992  000B  1011               	bcf	17,0	;volatile
  4993                           
  4994                           ;main.c: 118: if (SSP1STATbits.R_nW)
  4995  000C  0024               	movlb	4	; select bank4
  4996  000D  1D14               	btfss	20,2	;volatile
  4997  000E  2829               	goto	i1l2373
  4998                           
  4999                           ;main.c: 119: {;main.c: 120: if (!SSP1STATbits.D_nA)
  5000  000F  1A94               	btfsc	20,5	;volatile
  5001  0010  281C               	goto	i1l2365
  5002                           
  5003                           ;main.c: 121: {;main.c: 122: SSP1BUF = I2C_buffer.byte[index_i2c++];
  5004  0011  087C               	movf	_index_i2c,w
  5005  0012  3EA0               	addlw	(low (_I2C_buffer| 0))& (0+255)
  5006  0013  0086               	movwf	6
  5007  0014  0187               	clrf	7
  5008  0015  0801               	movf	1,w
  5009  0016  0091               	movwf	17	;volatile
  5010  0017  3001               	movlw	1
  5011  0018  00F0               	movwf	??_isr
  5012  0019  0870               	movf	??_isr,w
  5013  001A  07FC               	addwf	_index_i2c,f
  5014                           
  5015                           ;main.c: 123: SSP1CON1bits.CKP = 1;
  5016  001B  1615               	bsf	21,4	;volatile
  5017  001C                     i1l2365:	
  5018                           
  5019                           ;main.c: 124: };main.c: 125: if (SSP1STATbits.D_nA)
  5020  001C  1E94               	btfss	20,5	;volatile
  5021  001D  2829               	goto	i1l2373
  5022                           
  5023                           ;main.c: 126: {;main.c: 127: SSP1BUF = I2C_buffer.byte[index_i2c++];
  5024  001E  087C               	movf	_index_i2c,w
  5025  001F  3EA0               	addlw	(low (_I2C_buffer| 0))& (0+255)
  5026  0020  0086               	movwf	6
  5027  0021  0187               	clrf	7
  5028  0022  0801               	movf	1,w
  5029  0023  0091               	movwf	17	;volatile
  5030  0024  3001               	movlw	1
  5031  0025  00F0               	movwf	??_isr
  5032  0026  0870               	movf	??_isr,w
  5033  0027  07FC               	addwf	_index_i2c,f
  5034                           
  5035                           ;main.c: 128: SSP1CON1bits.CKP = 1;
  5036  0028  1615               	bsf	21,4	;volatile
  5037  0029                     i1l2373:	
  5038                           
  5039                           ;main.c: 129: };main.c: 130: };main.c: 131: if (!SSP1STATbits.R_nW)
  5040  0029  1914               	btfsc	20,2	;volatile
  5041  002A  2869               	goto	i1l2407
  5042                           
  5043                           ;main.c: 132: {;main.c: 133: if (!SSP1STATbits.D_nA)
  5044  002B  1A94               	btfsc	20,5	;volatile
  5045  002C  2838               	goto	i1l2383
  5046                           
  5047                           ;main.c: 134: {;main.c: 135: first_i2c = 1;
  5048  002D  0021               	movlb	1	; select bank1
  5049  002E  01E9               	clrf	_first_i2c^(0+128)
  5050  002F  0AE9               	incf	_first_i2c^(0+128),f
  5051                           
  5052                           ;main.c: 136: junk = SSP1BUF;
  5053  0030  0024               	movlb	4	; select bank4
  5054  0031  0811               	movf	17,w	;volatile
  5055  0032  00F0               	movwf	??_isr
  5056  0033  0870               	movf	??_isr,w
  5057  0034  0021               	movlb	1	; select bank1
  5058  0035  00CB               	movwf	isr@junk^(0+128)
  5059                           
  5060                           ;main.c: 137: SSP1CON1bits.CKP = 1;
  5061  0036  0024               	movlb	4	; select bank4
  5062  0037  1615               	bsf	21,4	;volatile
  5063  0038                     i1l2383:	
  5064                           
  5065                           ;main.c: 138: };main.c: 139: if (SSP1STATbits.D_nA)
  5066  0038  1E94               	btfss	20,5	;volatile
  5067  0039  2869               	goto	i1l2407
  5068                           
  5069                           ;main.c: 140: {;main.c: 141: if (first_i2c) {
  5070  003A  0021               	movlb	1	; select bank1
  5071  003B  0869               	movf	_first_i2c^(0+128),w
  5072  003C  1903               	btfsc	3,2
  5073  003D  2846               	goto	i1l2391
  5074                           
  5075                           ;main.c: 142: index_i2c = SSP1BUF;
  5076  003E  0024               	movlb	4	; select bank4
  5077  003F  0811               	movf	17,w	;volatile
  5078  0040  00F0               	movwf	??_isr
  5079  0041  0870               	movf	??_isr,w
  5080  0042  00FC               	movwf	_index_i2c
  5081                           
  5082                           ;main.c: 143: first_i2c = 0;
  5083  0043  0021               	movlb	1	; select bank1
  5084  0044  01E9               	clrf	_first_i2c^(0+128)
  5085                           
  5086                           ;main.c: 144: }
  5087  0045  285E               	goto	i1l2399
  5088  0046                     i1l2391:	
  5089                           
  5090                           ;main.c: 146: else {;main.c: 147: if (index_i2c < RX_ELMNTS)
  5091  0046  301D               	movlw	29
  5092  0047  027C               	subwf	_index_i2c,w
  5093  0048  1803               	skipnc
  5094  0049  2858               	goto	i1l2397
  5095                           
  5096                           ;main.c: 148: {;main.c: 149: I2C_buffer.byte[index_i2c++] = SSP1BUF;
  5097  004A  0024               	movlb	4	; select bank4
  5098  004B  0811               	movf	17,w	;volatile
  5099  004C  00F0               	movwf	??_isr
  5100  004D  087C               	movf	_index_i2c,w
  5101  004E  3EA0               	addlw	(low (_I2C_buffer| 0))& (0+255)
  5102  004F  0086               	movwf	6
  5103  0050  0187               	clrf	7
  5104  0051  0870               	movf	??_isr,w
  5105  0052  0081               	movwf	1
  5106  0053  3001               	movlw	1
  5107  0054  00F0               	movwf	??_isr
  5108  0055  0870               	movf	??_isr,w
  5109  0056  07FC               	addwf	_index_i2c,f
  5110                           
  5111                           ;main.c: 150: } else {
  5112  0057  285E               	goto	i1l2399
  5113  0058                     i1l2397:	
  5114                           
  5115                           ;main.c: 151: junk = SSP1BUF;
  5116  0058  0024               	movlb	4	; select bank4
  5117  0059  0811               	movf	17,w	;volatile
  5118  005A  00F0               	movwf	??_isr
  5119  005B  0870               	movf	??_isr,w
  5120  005C  0021               	movlb	1	; select bank1
  5121  005D  00CB               	movwf	isr@junk^(0+128)
  5122  005E                     i1l2399:	
  5123                           
  5124                           ;main.c: 152: };main.c: 153: };main.c: 154: if (SSP1CON1bits.WCOL)
  5125  005E  0024               	movlb	4	; select bank4
  5126  005F  1F95               	btfss	21,7	;volatile
  5127  0060  2867               	goto	i1l2405
  5128                           
  5129                           ;main.c: 155: {;main.c: 156: SSP1CON1bits.WCOL = 0;
  5130  0061  1395               	bcf	21,7	;volatile
  5131                           
  5132                           ;main.c: 157: junk = SSP1BUF;
  5133  0062  0811               	movf	17,w	;volatile
  5134  0063  00F0               	movwf	??_isr
  5135  0064  0870               	movf	??_isr,w
  5136  0065  0021               	movlb	1	; select bank1
  5137  0066  00CB               	movwf	isr@junk^(0+128)
  5138  0067                     i1l2405:	
  5139                           
  5140                           ;main.c: 158: };main.c: 159: SSP1CON1bits.CKP = 1;
  5141  0067  0024               	movlb	4	; select bank4
  5142  0068  1615               	bsf	21,4	;volatile
  5143  0069                     i1l2407:	
  5144                           
  5145                           ;main.c: 160: };main.c: 161: };main.c: 162: PIR1bits.SSP1IF = 0;
  5146  0069  0020               	movlb	0	; select bank0
  5147  006A  1191               	bcf	17,3	;volatile
  5148                           
  5149                           ;main.c: 163: INTCONbits.IOCIE = 1;
  5150  006B  158B               	bsf	11,3	;volatile
  5151                           
  5152                           ;main.c: 164: PIE1bits.TMR1IE = 1;
  5153  006C  0021               	movlb	1	; select bank1
  5154  006D  1411               	bsf	17,0	;volatile
  5155  006E                     i1l2413:	
  5156                           
  5157                           ;main.c: 165: };main.c: 167: if (PIR2bits.BCL1IF)
  5158  006E  0020               	movlb	0	; select bank0
  5159  006F  1D92               	btfss	18,3	;volatile
  5160  0070  287D               	goto	i1l101
  5161                           
  5162                           ;main.c: 168: {;main.c: 169: junk = SSP1BUF;
  5163  0071  0024               	movlb	4	; select bank4
  5164  0072  0811               	movf	17,w	;volatile
  5165  0073  00F0               	movwf	??_isr
  5166  0074  0870               	movf	??_isr,w
  5167  0075  0021               	movlb	1	; select bank1
  5168  0076  00CB               	movwf	isr@junk^(0+128)
  5169                           
  5170                           ;main.c: 170: PIR2bits.BCL1IF = 0;
  5171  0077  0020               	movlb	0	; select bank0
  5172  0078  1192               	bcf	18,3	;volatile
  5173                           
  5174                           ;main.c: 171: SSP1CON1bits.CKP = 1;
  5175  0079  0024               	movlb	4	; select bank4
  5176  007A  1615               	bsf	21,4	;volatile
  5177                           
  5178                           ;main.c: 172: PIR1bits.SSP1IF = 0;
  5179  007B  0020               	movlb	0	; select bank0
  5180  007C  1191               	bcf	17,3	;volatile
  5181  007D                     i1l101:	
  5182  007D  107E               	bcf	126,0	;clear compiler interrupt flag (level 1)
  5183  007E  0009               	retfie
  5184  007F                     __end_of_isr:	
  5185  007E                     btemp	set	126	;btemp
  5186  007E                     int$flags	set	126
  5187  007E                     wtemp0	set	126


Data Sizes:
    Strings     0
    Constant    1
    Data        1
    BSS         45
    Persistent  32
    Stack       0

Auto Spaces:
    Space          Size  Autos    Used
    COMMON           14     12      13
    BANK0            80     78      78
    BANK1            80     29      74
    BANK2            80      0       0

Pointer List with Targets:

    None.

Critical Paths under _main in COMMON

    _init_I2C_buffer->_eeprom_read
    ___xxtofl->_ADC_read
    ___flmul->__Umul8_16

Critical Paths under _isr in COMMON

    None.

Critical Paths under _main in BANK0

    _main->___fladd
    _sqrt->___fldiv
    ___flmul->___xxtofl
    ___fldiv->___flmul
    ___fladd->___fldiv

Critical Paths under _isr in BANK0

    None.

Critical Paths under _main in BANK1

    _main->_sqrt

Critical Paths under _isr in BANK1

    None.

Critical Paths under _main in BANK2

    None.

Critical Paths under _isr in BANK2

    None.

Call Graph Tables:

 ---------------------------------------------------------------------------------
 (Depth) Function   	        Calls       Base Space   Used Autos Params    Refs
 ---------------------------------------------------------------------------------
 (0) _main                                                10     6      4   14931
                                             10 COMMON     2     2      0
                                             21 BANK1      8     4      4
                           _ADC_read
                            ___fladd
                            ___fldiv
                            ___flmul
                           ___xxtofl
                       _eeprom_write
                    _init_I2C_buffer
                               _sqrt
 ---------------------------------------------------------------------------------
 (1) _sqrt                                                29    25      4    1493
                                             62 BANK0      8     4      4
                                              0 BANK1     21    21      0
                            ___fldiv (ARG)
                            ___flmul (ARG)
                           ___xxtofl (ARG)
 ---------------------------------------------------------------------------------
 (1) _init_I2C_buffer                                      1     1      0      31
                                              5 COMMON     1     1      0
                        _eeprom_read
 ---------------------------------------------------------------------------------
 (2) _eeprom_read                                          4     4      0      31
                                              1 COMMON     4     4      0
 ---------------------------------------------------------------------------------
 (1) _eeprom_write                                         4     3      1     962
                                              1 COMMON     4     3      1
 ---------------------------------------------------------------------------------
 (1) ___xxtofl                                            14    10      4    1016
                                              5 COMMON     4     0      4
                                              0 BANK0     10    10      0
                           _ADC_read (ARG)
 ---------------------------------------------------------------------------------
 (1) ___flmul                                             26    18      8    4616
                                             10 BANK0     26    18      8
                          __Umul8_16
                           ___xxtofl (ARG)
 ---------------------------------------------------------------------------------
 (2) __Umul8_16                                            9     7      2     980
                                              1 COMMON     9     7      2
 ---------------------------------------------------------------------------------
 (1) ___fldiv                                             26    18      8    2763
                                             36 BANK0     26    18      8
                            ___flmul (ARG)
                           ___xxtofl (ARG)
 ---------------------------------------------------------------------------------
 (1) ___fladd                                             20    12      8    3982
                                             62 BANK0     16     8      8
                                              0 BANK1      4     4      0
                            ___fldiv (ARG)
                            ___flmul (ARG)
 ---------------------------------------------------------------------------------
 (1) _ADC_read                                             4     2      2      31
                                              1 COMMON     4     2      2
 ---------------------------------------------------------------------------------
 Estimated maximum stack depth 2
 ---------------------------------------------------------------------------------
 (Depth) Function   	        Calls       Base Space   Used Autos Params    Refs
 ---------------------------------------------------------------------------------
 (3) _isr                                                  1     1      0       0
                                              0 COMMON     1     1      0
 ---------------------------------------------------------------------------------
 Estimated maximum stack depth 3
 ---------------------------------------------------------------------------------

 Call Graph Graphs:

 _main (ROOT)
   _ADC_read
   ___fladd
     ___fldiv (ARG)
       ___flmul (ARG)
         __Umul8_16
         ___xxtofl (ARG)
           _ADC_read (ARG)
       ___xxtofl (ARG)
         _ADC_read (ARG)
     ___flmul (ARG)
       __Umul8_16
       ___xxtofl (ARG)
         _ADC_read (ARG)
   ___fldiv
     ___flmul (ARG)
       __Umul8_16
       ___xxtofl (ARG)
         _ADC_read (ARG)
     ___xxtofl (ARG)
       _ADC_read (ARG)
   ___flmul
     __Umul8_16
     ___xxtofl (ARG)
       _ADC_read (ARG)
   ___xxtofl
     _ADC_read (ARG)
   _eeprom_write
   _init_I2C_buffer
     _eeprom_read
   _sqrt
     ___fldiv (ARG)
       ___flmul (ARG)
         __Umul8_16
         ___xxtofl (ARG)
           _ADC_read (ARG)
       ___xxtofl (ARG)
         _ADC_read (ARG)
     ___flmul (ARG)
       __Umul8_16
       ___xxtofl (ARG)
         _ADC_read (ARG)
     ___xxtofl (ARG)
       _ADC_read (ARG)

 _isr (ROOT)

 Address spaces:
Name               Size   Autos  Total    Cost      Usage
BIGRAM              F0      0       0       0        0.0%
EEDATA             100      0       0       0        0.0%
NULL                 0      0       0       0        0.0%
CODE                 0      0       0       0        0.0%
BITCOMMON            E      0       0       1        0.0%
BITSFR0              0      0       0       1        0.0%
SFR0                 0      0       0       1        0.0%
COMMON               E      C       D       2       92.9%
BITSFR1              0      0       0       2        0.0%
SFR1                 0      0       0       2        0.0%
BITSFR2              0      0       0       3        0.0%
SFR2                 0      0       0       3        0.0%
STACK                0      0       0       3        0.0%
BITSFR3              0      0       0       4        0.0%
SFR3                 0      0       0       4        0.0%
ABS                  0      0      A5       4        0.0%
BITBANK0            50      0       0       5        0.0%
BITSFR4              0      0       0       5        0.0%
SFR4                 0      0       0       5        0.0%
BANK0               50     4E      4E       6       97.5%
BITSFR5              0      0       0       6        0.0%
SFR5                 0      0       0       6        0.0%
BITBANK1            50      0       0       7        0.0%
BITSFR6              0      0       0       7        0.0%
SFR6                 0      0       0       7        0.0%
BANK1               50     1D      4A       8       92.5%
BITSFR7              0      0       0       8        0.0%
SFR7                 0      0       0       8        0.0%
BITBANK2            50      0       0       9        0.0%
BITSFR8              0      0       0       9        0.0%
SFR8                 0      0       0       9        0.0%
BANK2               50      0       0      10        0.0%
BITSFR9              0      0       0      10        0.0%
SFR9                 0      0       0      10        0.0%
BITSFR10             0      0       0      11        0.0%
SFR10                0      0       0      11        0.0%
DATA                 0      0      A5      11        0.0%
BITSFR11             0      0       0      12        0.0%
SFR11                0      0       0      12        0.0%
BITSFR12             0      0       0      13        0.0%
SFR12                0      0       0      13        0.0%
BITSFR13             0      0       0      14        0.0%
SFR13                0      0       0      14        0.0%
BITSFR14             0      0       0      15        0.0%
SFR14                0      0       0      15        0.0%
BITSFR15             0      0       0      16        0.0%
SFR15                0      0       0      16        0.0%
BITSFR16             0      0       0      17        0.0%
SFR16                0      0       0      17        0.0%
BITSFR17             0      0       0      18        0.0%
SFR17                0      0       0      18        0.0%
BITSFR18             0      0       0      19        0.0%
SFR18                0      0       0      19        0.0%
BITSFR19             0      0       0      20        0.0%
SFR19                0      0       0      20        0.0%
BITSFR20             0      0       0      21        0.0%
SFR20                0      0       0      21        0.0%
BITSFR21             0      0       0      22        0.0%
SFR21                0      0       0      22        0.0%
BITSFR22             0      0       0      23        0.0%
SFR22                0      0       0      23        0.0%
BITSFR23             0      0       0      24        0.0%
SFR23                0      0       0      24        0.0%
BITSFR24             0      0       0      25        0.0%
SFR24                0      0       0      25        0.0%
BITSFR25             0      0       0      26        0.0%
SFR25                0      0       0      26        0.0%
BITSFR26             0      0       0      27        0.0%
SFR26                0      0       0      27        0.0%
BITSFR27             0      0       0      28        0.0%
SFR27                0      0       0      28        0.0%
BITSFR28             0      0       0      29        0.0%
SFR28                0      0       0      29        0.0%
BITSFR29             0      0       0      30        0.0%
SFR29                0      0       0      30        0.0%
BITSFR30             0      0       0      31        0.0%
SFR30                0      0       0      31        0.0%
BITSFR31             0      0       0      32        0.0%
SFR31                0      0       0      32        0.0%


Microchip Technology PIC Macro Assembler V2.10 build 88905656 
Symbol Table                                                                                   Tue Feb 11 14:21:11 2020

            ___fldiv@aexp 005D              ___fldiv@bexp 005C              ___fldiv@sign 0055  
             __CFG_CP$OFF 0000                        l75 0A6A       __Umul8_16@word_mpld 0077  
                     l106 00BB                       l271 07ED                       l600 0553  
                     l291 07AC                       l702 0FF3                       l615 0607  
                     l650 0ABA                       l722 0CFC                       l619 0628  
                     l636 0693                       l628 0676                       l671 0BC1  
                     l672 0BD9                       l761 0707                       l594 04BA  
                     l674 0BE6                       l762 0711                       l754 06F3  
                     l748 06BD                       l598 0577                       l769 07DB  
            __CFG_CPD$OFF 0000                       _adc 00C5                       _isr 0004  
            __CFG_BORV$LO 0000                       wreg 0009              ___flmul@aexp 0038  
            ___flmul@bexp 0039              ___flmul@sign 0037              ___flmul@temp 0042  
            ___flmul@prod 003E              __CFG_LVP$OFF 0000                      l3101 0F5B  
                    l3021 0E03                      l3103 0F72                      l3023 0E0B  
                    l3113 0F8B                      l3041 0E2E                      l3123 0FB4  
                    l3019 0E01                      l3133 0FE0                      l3109 0F89  
                    l3037 0E24                      l2511 07D5                      l3127 0FC9  
                    l3039 0E26                      l3151 06B5                      l3049 0E3C  
                    l3161 06D0                      l3171 0705                      l3163 06E0  
                    l2611 0C5E                      l3173 06F8                      l3157 06CC  
                    l2605 0C3B                      l3261 034E                      l3245 0128  
                    l2703 049D                      l2713 04B1                      l3185 072C  
                    l2641 0CDE                      l2617 0C7A                      l2811 061C  
                    l2803 05FF                      l2643 0CB1                      l2635 0CB0  
                    l3259 013B                      l2709 04AD                      l2645 0D2F  
                    l2719 04C7                      l2903 0AB2                      l2833 0642  
                    l2825 0634                      l2913 0AD9                      l2657 0DB8  
                    l2819 062D                      l2827 0637                      l2763 0564  
                    l2691 0488                      l2595 0C25                      l2587 0BFC  
                    l2837 0645                      l2757 055D                      l2749 051A  
                    l2685 047B                      l2855 0689                      l2783 059C  
                    l2775 0586                      l2759 055F                      l2767 0572  
                    l2679 046B                      l2919 0AE5                      l2599 0C2D  
                    l2785 059E                      l2793 05B2                      l2689 047F  
                    l2945 0B45                      l2859 068E                      l2971 0B7E  
                    l2963 0B50                      l2939 0B2C                      l2947 0B0E  
                    l2883 0A8E                      l2789 05A3                      l2965 0B67  
                    l2949 0B4A                      l2885 0A96                      l2975 0B80  
                    l2879 0A8B                      l2985 0BA9                      l2899 0AAF  
                    l2999 0BE2                      ?_isr 0070              __CFG_WDTE$ON 0000  
                    u3115 07DC                      u3135 0A58                      u3091 07EC  
                    u3315 0D3F                      u4045 0B97                      u4205 0F5E  
                    u3325 0D70                      u3245 0C86                      u4055 0BB2  
                    u3505 0567                      u4065 0BCB                      u4305 0FBD  
                    u4225 0F67                      u3345 0D9F                      u3265 0CAA  
                    u4315 0FD3                      u3275 0CCB                      u3460 053D  
                    u4165 0EAF                      u4405 06FF                      u3285 0D0C  
                    u3470 053E                      u3455 0532                      u4175 0EDC  
                    u3295 0D22                      u3625 061D                      u4185 0F2E  
                    u4195 0F4A                      u3725 065E                      u4445 0719  
                    u4365 06D9                      u3583 05C5                      u3575 05A6  
                    u4295 0FA2                      u4527 0123                      u4537 0A63  
                    u4385 06ED                      u3915 0B26                      u3925 0B3A  
                    u4495 0145                      u3955 0B53                      u3885 0B16  
                    u3975 0B5C                      u3895 0B1D                      _WPUA 020C  
          ??_eeprom_write 0072              __CFG_WRT$OFF 0000                      _iacc 00C1  
                    _main 0092                      _vacc 00BD                      fsr0h 0005  
                    fsr1h 0007                      indf0 0000                      fsr0l 0004  
                    indf1 0001                      fsr1l 0006                      btemp 007E  
                    _sqrt 0BEB             __CFG_BOREN$ON 0000                      start 007F  
        __end_of_ADC_read 0A72             __CFG_IESO$OFF 0000           ___fldiv@new_exp 0056  
           __CFG_MCLRE$ON 0000                     ??_isr 0070             __CFG_PLLEN$ON 0000  
         __end_of___fladd 069F                     ?_main 00E1           __end_of___fldiv 0BEB  
                   _EEADR 0191           __end_of___flmul 1000                     ?_sqrt 005E  
                   i1l101 007D                     _TRISA 008C             __CFG_PWRTE$ON 0000  
          __CFG_FCMEN$OFF 0000                     _errno 00C9                     main@i 007A  
                   sqrt@a 005E                     sqrt@i 00CD                     sqrt@p 00D2  
                   status 0003                     wtemp0 007E           __initialization 0081  
            __end_of_main 045A              __end_of_sqrt 0DE8                    ??_main 00E5  
                  ??_sqrt 0062                    _ADCON0 009D                    _ADCON1 009E  
                  _ADRESH 009C                    _ADRESL 009B                    _EEDATA 0193  
                  _EECON1 0195                    _EECON2 0196                    _ANSELA 018C  
                  i1l2405 0067                    i1l2413 006E                    i1l2407 0069  
                  i1l2365 001C                    i1l2373 0029                    i1l2391 0046  
                  i1l2383 0038                    i1l2397 0058                    i1l2399 005E  
                  _INTCON 000B                    _OSCCON 0099          __end_of___xxtofl 0735  
    __size_of_eeprom_read 0015                 ??___fladd 0066                 ??___fldiv 004C  
          __CFG_STVREN$ON 0000                 ??___flmul 0032      __end_of_eeprom_write 07CB  
__size_of_init_I2C_buffer 0076        __size_of__Umul8_16 001F                 ?_ADC_read 0071  
       __end_of_RX_ELMNTS 0801              ___xxtofl@arg 0026              ___xxtofl@exp 0025  
            ___xxtofl@val 0075   __end_of__initialization 008E           eeprom_read@addr 0074  
          __pcstackCOMMON 0070              __pidataBANK1 07FF            _OPTION_REGbits 0095  
         ADC_read@channel 0074                ??_ADC_read 0073         eeprom_write@value 0071  
              __pbssBANK1 00A0         __end_of__Umul8_16 07EA                __pmaintext 0092  
              __pintentry 0004                 ?___xxtofl 0075                   _SSP1ADD 0212  
                 _SSP1BUF 0211         ??_init_I2C_buffer 0075     __size_of_eeprom_write 0020  
                 ___fladd 045A                   ___fldiv 0A72                   ___flmul 0DE8  
                 __ptext1 0BEB                   __ptext2 0735                   __ptext3 07EA  
                 __ptext4 07AB                   __ptext5 069F                   __ptext6 0DE8  
                 __ptext7 07CB                   __ptext8 0A72                   __ptext9 045A  
            __size_of_isr 007B                ??___xxtofl 0020                   clrloop0 0A4F  
    end_of_initialization 008E                   isr@junk 00CB              _eeprom_write 07AB  
                 sqrt@grs 00D3                   sqrt@exp 00D7               ___fladd@grs 00CF  
        __CFG_FOSC$INTOSC 0000             ___xxtofl@sign 0024               ___fldiv@grs 0058  
             ___fldiv@rem 0051         __size_of_ADC_read 001E                 _RX_ELMNTS 0800  
             ___flmul@grs 003A             ??_eeprom_read 0071       start_initialization 0081  
             __end_of_isr 007F       __end_of_eeprom_read 07FF                 __Umul8_16 07CB  
             __pdataBANK1 00E9           _init_I2C_buffer 0735                 ___fladd@a 0062  
               ___fladd@b 005E                 ___fldiv@a 0044                 ___fldiv@b 0048  
               ___flmul@a 002E                 ___flmul@b 002A               __pbssCOMMON 007C  
               ___latbits 0001             __pcstackBANK0 0020             __pcstackBANK1 00CC  
       __size_of___xxtofl 0096          eeprom_write@addr 0074                  ?___fladd 005E  
                ?___fldiv 0044                  ?___flmul 002A                ?__Umul8_16 0071  
               _first_i2c 00E9                 _index_i2c 007C                  _ADC_read 0A54  
                _LATAbits 010C                 clear_ram0 0A4E               _eeprom_read 07EA  
                _PIE1bits 0091                  _PIE2bits 0092                  _PIR1bits 0011  
                _PIR2bits 0012   __end_of_init_I2C_buffer 07AB                  _SSP1CON1 0215  
                _SSP1STAT 0214                _ADCON0bits 009D                _I2C_buffer 00A0  
              _EECON1bits 0195               ??__Umul8_16 0073          __size_of___fladd 0245  
        __size_of___fldiv 0179          __size_of___flmul 0218                  ___xxtofl 069F  
                __ptext10 0A54              _SSP1CON1bits 0215              _SSP1CON2bits 0216  
            _SSP1CON3bits 0217             __size_of_main 03C8             __size_of_sqrt 01FD  
        ?_init_I2C_buffer 0070                  int$flags 007E                  main@argc 00E1  
                main@argv 00E3              _SSP1STATbits 0214                _INTCONbits 000B  
               sqrt@tfrac 00CE                  intlevel1 0000         __CFG_CLKOUTEN$OFF 0000  
           __pstringtext1 0800                  sqrt@frac 00DD                  sqrt@sign 00CC  
                sqrt@root 00D9    __Umul8_16@multiplicand 0071             ___fladd@signs 00CC  
           ?_eeprom_write 0071              ___fladd@aexp 00CD              ___fladd@bexp 00CE  
              _STATUSbits 0003      __Umul8_16@multiplier 0079              ?_eeprom_read 0070  
       __Umul8_16@product 0075  
